EXPORTS
	_ZN19RPackagerTestClient12PackAndSendLERK10CCntFilterR14TRequestStatus @ 1 NONAME
	_ZN19RPackagerTestClient12PackAndSendLERK12CContactItemR14TRequestStatus @ 2 NONAME
	_ZN19RPackagerTestClient12PackAndSendLERK12CContentTypeR14TRequestStatus @ 3 NONAME
	_ZN19RPackagerTestClient12PackAndSendLERK12CDesC16ArrayR14TRequestStatus @ 4 NONAME
	_ZN19RPackagerTestClient12PackAndSendLERK12CViewContactR14TRequestStatus @ 5 NONAME
	_ZN19RPackagerTestClient12PackAndSendLERK15CContactIdArrayR14TRequestStatus @ 6 NONAME
	_ZN19RPackagerTestClient12PackAndSendLERK15CContactTextDefR14TRequestStatus @ 7 NONAME
	_ZN19RPackagerTestClient12PackAndSendLERK15CContactViewDefR14TRequestStatus @ 8 NONAME
	_ZN19RPackagerTestClient12PackAndSendLERK19CContactItemViewDefR14TRequestStatus @ 9 NONAME
	_ZN19RPackagerTestClient5CloseEv @ 10 NONAME
	_ZN19RPackagerTestClient8ConnectLEv @ 11 NONAME
	_ZNK19RPackagerTestClient17DoUnpackCntItemLCEiR8TIpcArgs @ 12 NONAME
	_ZNK19RPackagerTestClient17DoUnpackViewCntLCEiR8TIpcArgs @ 13 NONAME
	_ZNK19RPackagerTestClient19DoUnpackCntFilterLCEiR8TIpcArgs @ 14 NONAME
	_ZNK19RPackagerTestClient19DoUnpackDesCArrayLCEiR8TIpcArgs @ 15 NONAME
	_ZNK19RPackagerTestClient20DoUnpackCntIdArrayLCEiR8TIpcArgs @ 16 NONAME
	_ZNK19RPackagerTestClient20DoUnpackCntTextDefLCEiR8TIpcArgs @ 17 NONAME
	_ZNK19RPackagerTestClient20DoUnpackCntViewDefLCEiR8TIpcArgs @ 18 NONAME
	_ZNK19RPackagerTestClient21GetAndUnpackCntItemLCEv @ 19 NONAME
	_ZNK19RPackagerTestClient21GetAndUnpackViewCntLCEv @ 20 NONAME
	_ZNK19RPackagerTestClient23GetAndUnpackCntFilterLCEv @ 21 NONAME
	_ZNK19RPackagerTestClient23GetAndUnpackDesCArrayLCEv @ 22 NONAME
	_ZNK19RPackagerTestClient24DoUnpackCntContentTypeLCEiR8TIpcArgs @ 23 NONAME
	_ZNK19RPackagerTestClient24DoUnpackCntItemViewDefLCEiR8TIpcArgs @ 24 NONAME
	_ZNK19RPackagerTestClient24GetAndUnpackCntIdArrayLCEv @ 25 NONAME
	_ZNK19RPackagerTestClient24GetAndUnpackCntTextDefLCEv @ 26 NONAME
	_ZNK19RPackagerTestClient24GetAndUnpackCntViewDefLCEv @ 27 NONAME
	_ZNK19RPackagerTestClient28GetAndUnpackCntContentTypeLCEv @ 28 NONAME
	_ZNK19RPackagerTestClient28GetAndUnpackCntItemViewDefLCEv @ 29 NONAME

