EXPORTS
	_ZN10CCntFilter21SetIncludeNewContactsEi @ 1 NONAME
	_ZN10CCntFilter21TestContactFilterTypeE4TUid @ 2 NONAME
	_ZN10CCntFilter23SetContactFilterTypeALLEi @ 3 NONAME
	_ZN10CCntFilter24SetContactFilterTypeCardEi @ 4 NONAME
	_ZN10CCntFilter25SetContactFilterTypeGroupEi @ 5 NONAME
	_ZN10CCntFilter25SetIncludeDeletedContactsEi @ 6 NONAME
	_ZN10CCntFilter26SetIncludeModifiedContactsEi @ 7 NONAME
	_ZN10CCntFilter27SetContactFilterTypeOwnCardEi @ 8 NONAME
	_ZN10CCntFilter28SetContactFilterTypeTemplateEi @ 9 NONAME
	_ZN10CCntFilter4NewLEPKS_ @ 10 NONAME
	_ZN10CCntFilter4NewLEv @ 11 NONAME
	_ZN10CCntFilter5NewLCEPKS_ @ 12 NONAME
	_ZN10CCntFilter5NewLCEv @ 13 NONAME
	_ZN10CCntFilter5ResetEv @ 14 NONAME
	_ZN10CCntFilterD0Ev @ 15 NONAME
	_ZN10CCntFilterD1Ev @ 16 NONAME
	_ZN10CCntFilterD2Ev @ 17 NONAME
	_ZN11CIdleFinder14TakeContactIdsEv @ 18 NONAME
	_ZN11ContactGuid23IsLocalContactUidStringERK7TDesC16x @ 19 NONAME
	_ZN12CContactCard4NewLEPK12CContactItem @ 20 NONAME
	_ZN12CContactCard4NewLEv @ 21 NONAME
	_ZN12CContactCard5NewLCEPK12CContactItem @ 22 NONAME
	_ZN12CContactCard5NewLCEv @ 23 NONAME
	_ZN12CContactCardD0Ev @ 24 NONAME
	_ZN12CContactCardD1Ev @ 25 NONAME
	_ZN12CContactCardD2Ev @ 26 NONAME
	_ZN12CContactItem10SetDeletedEi @ 27 NONAME
	_ZN12CContactItem11RemoveFieldEi @ 28 NONAME
	_ZN12CContactItem12InsertFieldLER17CContactItemFieldi @ 29 NONAME
	_ZN12CContactItem13SetUidStringLER7TDesC16 @ 30 NONAME
	_ZN12CContactItem14UpdateFieldSetEP20CContactItemFieldSet @ 31 NONAME
	_ZN12CContactItem15SetLastModifiedERK5TTime @ 32 NONAME
	_ZN12CContactItem16SetTemplateRefIdEl @ 33 NONAME
	_ZN12CContactItem8IsHiddenEv @ 34 NONAME
	_ZN12CContactItem8IsSystemEv @ 35 NONAME
	_ZN12CContactItem9AddFieldLER17CContactItemField @ 36 NONAME
	_ZN12CContactItem9SetHiddenEi @ 37 NONAME
	_ZN12CContactItem9SetSystemEi @ 38 NONAME
	_ZN12CContactItemD0Ev @ 39 NONAME
	_ZN12CContactItemD1Ev @ 40 NONAME
	_ZN12CContactItemD2Ev @ 41 NONAME
	_ZN12CContentType10SetMappingE4TUid @ 42 NONAME
	_ZN12CContentType13AddFieldTypeLE4TUid @ 43 NONAME
	_ZN12CContentType15RemoveFieldTypeE4TUid @ 44 NONAME
	_ZN12CContentType4NewLE4TUidS0_ @ 45 NONAME
	_ZN12CContentType4NewLERKS_ @ 46 NONAME
	_ZN12CContentType4NewLEv @ 47 NONAME
	_ZN12CContentTypeD0Ev @ 48 NONAME
	_ZN12CContentTypeD1Ev @ 49 NONAME
	_ZN12CContentTypeD2Ev @ 50 NONAME
	_ZN12CViewContact12InternalizeLER11RReadStream @ 51 NONAME
	_ZN12CViewContact4NewLERKS_ @ 52 NONAME
	_ZN12CViewContact5NewLCEl @ 53 NONAME
	_ZN12CViewContact9AddFieldLERK7TDesC16 @ 54 NONAME
	_ZN12CViewContactC1El @ 55 NONAME
	_ZN12CViewContactC2El @ 56 NONAME
	_ZN12CViewContactD0Ev @ 57 NONAME
	_ZN12CViewContactD1Ev @ 58 NONAME
	_ZN12CViewContactD2Ev @ 59 NONAME
	_ZN12TContactIter5GotoLEl @ 60 NONAME
	_ZN12TContactIter5LastLEv @ 61 NONAME
	_ZN12TContactIter5NextLEv @ 62 NONAME
	_ZN12TContactIter5ResetEv @ 63 NONAME
	_ZN12TContactIter6FirstLEv @ 64 NONAME
	_ZN12TContactIter9PreviousLEv @ 65 NONAME
	_ZN12TContactIterC1ER16CContactDatabase @ 66 NONAME
	_ZN12TContactIterC2ER16CContactDatabase @ 67 NONAME
	_ZN13CContactGroup12ContainsItemEl @ 68 NONAME
	_ZN13CContactGroup14GetGroupLabelLEv @ 69 NONAME
	_ZN13CContactGroup14SetGroupLabelLERK7TDesC16 @ 70 NONAME
	_ZN13CContactGroup17HasItemLabelFieldEv @ 71 NONAME
	_ZN13CContactGroup4NewLEv @ 72 NONAME
	_ZN13CContactGroup5NewLCEv @ 73 NONAME
	_ZN13CContactGroup9SetSystemEi @ 74 NONAME
	_ZN13CContactGroupD0Ev @ 75 NONAME
	_ZN13CContactGroupD1Ev @ 76 NONAME
	_ZN13CContactGroupD2Ev @ 77 NONAME
	_ZN15CContactIdArray12InternalizeLER11RReadStream @ 78 NONAME
	_ZN15CContactIdArray12ReverseOrderEv @ 79 NONAME
	_ZN15CContactIdArray4AddLEl @ 80 NONAME
	_ZN15CContactIdArray4NewLEPKS_ @ 81 NONAME
	_ZN15CContactIdArray4NewLEv @ 82 NONAME
	_ZN15CContactIdArray5MoveLEii @ 83 NONAME
	_ZN15CContactIdArray5NewLCEPKS_ @ 84 NONAME
	_ZN15CContactIdArray5NewLCEv @ 85 NONAME
	_ZN15CContactIdArrayD0Ev @ 86 NONAME
	_ZN15CContactIdArrayD1Ev @ 87 NONAME
	_ZN15CContactIdArrayD2Ev @ 88 NONAME
	_ZN15CContactOwnCard4NewLEPK12CContactItem @ 89 NONAME
	_ZN15CContactOwnCard4NewLEv @ 90 NONAME
	_ZN15CContactOwnCard5NewLCEPK12CContactItem @ 91 NONAME
	_ZN15CContactOwnCard5NewLCEv @ 92 NONAME
	_ZN15CContactOwnCardD0Ev @ 93 NONAME
	_ZN15CContactOwnCardD1Ev @ 94 NONAME
	_ZN15CContactOwnCardD2Ev @ 95 NONAME
	_ZN15CContactTextDef14ExactMatchOnlyEv @ 96 NONAME
	_ZN15CContactTextDef16SetFallbackFieldE4TUid @ 97 NONAME
	_ZN15CContactTextDef17SetExactMatchOnlyEi @ 98 NONAME
	_ZN15CContactTextDef4NewLEv @ 99 NONAME
	_ZN15CContactTextDef5NewLCEv @ 100 NONAME
	_ZN15CContactViewDef12InternalizeLER11RReadStream @ 101 NONAME
	_ZN15CContactViewDef4NewLEP19CContactItemViewDef @ 102 NONAME
	_ZN15CContactViewDef4NewLEv @ 103 NONAME
	_ZN15CContactViewDef5NewLCEP19CContactItemViewDef @ 104 NONAME
	_ZN15CContactViewDef5NewLCEv @ 105 NONAME
	_ZN15CContactViewDefD0Ev @ 106 NONAME
	_ZN15CContactViewDefD1Ev @ 107 NONAME
	_ZN15CContactViewDefD2Ev @ 108 NONAME
	_ZN16CContactDatabase10FindAsyncLERK7TDesC16PK20CContactItemFieldDefP17MIdleFindObserver @ 109 NONAME
	_ZN16CContactDatabase10SortArrayLEPK15CContactIdArrayPK9CArrayFixINS_9TSortPrefEE @ 110 NONAME
	_ZN16CContactDatabase10SortAsyncLEP9CArrayFixINS_9TSortPrefEER14TRequestStatus @ 111 NONAME
	_ZN16CContactDatabase10SortAsyncLEP9CArrayFixINS_9TSortPrefEER14TRequestStatusR20MContactSortObserver @ 112 NONAME
	_ZN16CContactDatabase11CloseTablesEv @ 113 NONAME
	_ZN16CContactDatabase11CreatePrefLEv @ 114 NONAME ABSENT
	_ZN16CContactDatabase11OpenTablesLEv @ 115 NONAME
	_ZN16CContactDatabase11SetOwnCardLERK12CContactItem @ 116 NONAME
	_ZN16CContactDatabase11SortArrayLCEPK15CContactIdArrayPK9CArrayFixINS_9TSortPrefEE @ 117 NONAME
	_ZN16CContactDatabase11SortByTypeLEP9CArrayFixINS_9TSortPrefEE @ 118 NONAME
	_ZN16CContactDatabase12OpenContactLEl @ 119 NONAME
	_ZN16CContactDatabase12OpenContactLElRK19CContactItemViewDef @ 120 NONAME
	_ZN16CContactDatabase12ReadContactLEl @ 121 NONAME
	_ZN16CContactDatabase12ReadContactLElRK19CContactItemViewDef @ 122 NONAME
	_ZN16CContactDatabase12ReplacePrefLEi @ 123 NONAME ABSENT
	_ZN16CContactDatabase12SortedItemsLEv @ 124 NONAME
	_ZN16CContactDatabase13AllFieldsViewEv @ 125 NONAME
	_ZN16CContactDatabase13CloseContactLEl @ 126 NONAME
	_ZN16CContactDatabase13DatabaseDriveER10TDriveUnit @ 127 NONAME
	_ZN16CContactDatabase13OpenContactLXEl @ 128 NONAME
	_ZN16CContactDatabase13OpenContactLXElRK19CContactItemViewDef @ 129 NONAME
	_ZN16CContactDatabase13ReadContactLCEl @ 130 NONAME
	_ZN16CContactDatabase13ReadContactLCElRK19CContactItemViewDef @ 131 NONAME
	_ZN16CContactDatabase14AddNewContactLER12CContactItem @ 132 NONAME
	_ZN16CContactDatabase14CommitContactLERK12CContactItem @ 133 NONAME
	_ZN16CContactDatabase14CreateOwnCardLEv @ 134 NONAME
	_ZN16CContactDatabase14DatabaseBeginLEi @ 135 NONAME
	_ZN16CContactDatabase14DeleteContactLEl @ 136 NONAME
	_ZN16CContactDatabase14ICCTemplateIdLE4TUid @ 137 NONAME
	_ZN16CContactDatabase14ICCTemplateIdLEv @ 138 NONAME
	_ZN16CContactDatabase14SetCurrentItemEl @ 139 NONAME
	_ZN16CContactDatabase15CancelAsyncSortEv @ 140 NONAME
	_ZN16CContactDatabase15CreateOwnCardLCEv @ 141 NONAME
	_ZN16CContactDatabase15CreateRecoverLCEv @ 142 NONAME
	_ZN16CContactDatabase15DamageDatabaseLEi @ 143 NONAME
	_ZN16CContactDatabase15DatabaseBeginLCEi @ 144 NONAME
	_ZN16CContactDatabase15DatabaseCommitLEi @ 145 NONAME
	_ZN16CContactDatabase15DeleteContactsLERK15CContactIdArray @ 146 NONAME
	_ZN16CContactDatabase15FilterDatabaseLER10CCntFilter @ 147 NONAME
	_ZN16CContactDatabase15FindContactFileER6TDes16 @ 148 NONAME ABSENT
	_ZN16CContactDatabase15FindInTextDefLCERK12MDesC16ArrayP15CContactTextDefRK9TCallBack @ 149 NONAME
	_ZN16CContactDatabase15FindInTextDefLCERK12MDesC16ArrayRK9TCallBack @ 150 NONAME
	_ZN16CContactDatabase15GetDefaultNameLER6TDes16 @ 151 NONAME
	_ZN16CContactDatabase15ImportContactsLERK4TUidR11RReadStreamRii @ 152 NONAME
	_ZN16CContactDatabase15StoreSortOrderLEv @ 153 NONAME
	_ZN16CContactDatabase15UpdateContactLCElP12CContactItem @ 154 NONAME
	_ZN16CContactDatabase16CompressRequiredEv @ 155 NONAME
	_ZN16CContactDatabase16ContactIdByGuidLERK7TDesC16 @ 156 NONAME
	_ZN16CContactDatabase16DatabaseCommitLPEi @ 157 NONAME
	_ZN16CContactDatabase16DatabaseRollbackEv @ 158 NONAME
	_ZN16CContactDatabase16GetLastSyncDateLElR5TTime @ 159 NONAME
	_ZN16CContactDatabase16SetLastSyncDateLERK5TTime @ 160 NONAME
	_ZN16CContactDatabase16SetLastSyncDateLElRK5TTime @ 161 NONAME
	_ZN16CContactDatabase16SetPrefTemplateLERK12CContactItem @ 162 NONAME
	_ZN16CContactDatabase16UnfiledContactsLEv @ 163 NONAME
	_ZN16CContactDatabase16doAddNewContactLER12CContactItemii @ 164 NONAME
	_ZN16CContactDatabase16doCommitContactLERK12CContactItemii @ 165 NONAME
	_ZN16CContactDatabase16doDeleteContactLEliii @ 166 NONAME
	_ZN16CContactDatabase17DeletedContactsLCEv @ 167 NONAME
	_ZN16CContactDatabase17LoadPhoneMatchesLEv @ 168 NONAME ABSENT
	_ZN16CContactDatabase17MatchPhoneNumberLERK7TDesC16i @ 169 NONAME
	_ZN16CContactDatabase17MatchPhoneNumberLEi @ 170 NONAME ABSENT
	_ZN16CContactDatabase17PhonebookGroupIdLEv @ 171 NONAME
	_ZN16CContactDatabase17RestoreSortOrderLEv @ 172 NONAME
	_ZN16CContactDatabase17SetDatabaseDriveLE10TDriveUniti @ 173 NONAME
	_ZN16CContactDatabase18AddContactToGroupLER12CContactItemS1_ @ 174 NONAME
	_ZN16CContactDatabase18AddContactToGroupLEll @ 175 NONAME
	_ZN16CContactDatabase18AddContactToGroupLElli @ 176 NONAME
	_ZN16CContactDatabase18CreateCompressorLCEv @ 177 NONAME
	_ZN16CContactDatabase18DeleteDefaultFileLEv @ 178 NONAME
	_ZN16CContactDatabase18GetSpeedDialFieldLEiR6TDes16 @ 179 NONAME
	_ZN16CContactDatabase18LockServerConnectLERK7TDesC16 @ 180 NONAME
	_ZN16CContactDatabase18SetDateFormatTextLERK7TDesC16 @ 181 NONAME
	_ZN16CContactDatabase18SetSortedItemsListEP15CContactIdArrayP9CArrayFixINS_9TSortPrefEE @ 182 NONAME
	_ZN16CContactDatabase18SetTextDefinitionLEP15CContactTextDef @ 183 NONAME
	_ZN16CContactDatabase18SetViewDefinitionLEP15CContactViewDef @ 184 NONAME
	_ZN16CContactDatabase19CreateContactGroupLERK7TDesC16i @ 185 NONAME
	_ZN16CContactDatabase19CreateContactGroupLEi @ 186 NONAME
	_ZN16CContactDatabase19FindInTextDefAsyncLERK12MDesC16ArrayP17MIdleFindObserverRK9TCallBack @ 187 NONAME
	_ZN16CContactDatabase19FindInTextDefAsyncLERK12MDesC16ArrayPK15CContactTextDefP17MIdleFindObserverRK9TCallBack @ 188 NONAME
	_ZN16CContactDatabase19ReadContactTextDefLERK12CContactItemR6TDes16 @ 189 NONAME
	_ZN16CContactDatabase19ReadContactTextDefLERK12CContactItemR6TDes16P15CContactTextDef @ 190 NONAME
	_ZN16CContactDatabase19ReadContactTextDefLElR6TDes16 @ 191 NONAME
	_ZN16CContactDatabase19ReadContactTextDefLElR6TDes16P15CContactTextDef @ 192 NONAME
	_ZN16CContactDatabase19ReadMinimalContactLEl @ 193 NONAME
	_ZN16CContactDatabase20CreateContactGroupLCERK7TDesC16i @ 194 NONAME
	_ZN16CContactDatabase20CreateContactGroupLCEi @ 195 NONAME
	_ZN16CContactDatabase20HandleDatabaseEventLERK23TContactDbObserverEvent @ 196 NONAME
	_ZN16CContactDatabase20ReadContactAndAgentLEl @ 197 NONAME
	_ZN16CContactDatabase20ReadMinimalContactLCEl @ 198 NONAME
	_ZN16CContactDatabase20SetDbViewContactTypeE4TUid @ 199 NONAME
	_ZN16CContactDatabase20SetFieldAsSpeedDialLER12CContactItemii @ 200 NONAME
	_ZN16CContactDatabase21ContactsChangedSinceLERK5TTime @ 201 NONAME
	_ZN16CContactDatabase21InitLoadPhoneMatchesLEv @ 202 NONAME ABSENT
	_ZN16CContactDatabase21RemoveSpeedDialFieldLEli @ 203 NONAME
	_ZN16CContactDatabase22CntServerResourceCountEv @ 204 NONAME
	_ZN16CContactDatabase22ResetServerSpeedDialsLEv @ 205 NONAME
	_ZN16CContactDatabase22TextToPhoneMatchNumberERK7TDesC16Rii @ 206 NONAME ABSENT
	_ZN16CContactDatabase23ExportSelectedContactsLERK4TUidRK15CContactIdArrayR12RWriteStreamiN6Versit14TVersitCharSetEi @ 207 NONAME
	_ZN16CContactDatabase23ExportSelectedContactsLERK4TUidRK15CContactIdArrayR12RWriteStreamii @ 208 NONAME
	_ZN16CContactDatabase23OverrideMachineUniqueIdEx @ 209 NONAME
	_ZN16CContactDatabase23RecreateSystemTemplateLERK7TDesC16 @ 210 NONAME
	_ZN16CContactDatabase23RemoveContactFromGroupLER12CContactItemS1_ @ 211 NONAME
	_ZN16CContactDatabase23RemoveContactFromGroupLEll @ 212 NONAME
	_ZN16CContactDatabase23SetCntServerHeapFailureEii @ 213 NONAME
	_ZN16CContactDatabase24ContactMatchesHintFieldLEil @ 214 NONAME
	_ZN16CContactDatabase26CreateContactCardTemplateLEPK12CContactItemRK7TDesC16i @ 215 NONAME
	_ZN16CContactDatabase26CreateContactCardTemplateLERK7TDesC16i @ 216 NONAME
	_ZN16CContactDatabase27CreateContactCardTemplateLCEPK12CContactItemRK7TDesC16i @ 217 NONAME
	_ZN16CContactDatabase27CreateContactCardTemplateLCERK7TDesC16i @ 218 NONAME
	_ZN16CContactDatabase5OpenLENS_13TThreadAccessE @ 219 NONAME
	_ZN16CContactDatabase5OpenLERK7TDesC16NS_13TThreadAccessE @ 220 NONAME
	_ZN16CContactDatabase5SortLEP9CArrayFixINS_9TSortPrefEE @ 221 NONAME
	_ZN16CContactDatabase6CountLEv @ 222 NONAME
	_ZN16CContactDatabase6FindLCERK7TDesC16PK20CContactItemFieldDef @ 223 NONAME
	_ZN16CContactDatabase7CreateLENS_13TThreadAccessE @ 224 NONAME
	_ZN16CContactDatabase7CreateLERK7TDesC16NS_13TThreadAccessE @ 225 NONAME
	_ZN16CContactDatabase7FileUidEv @ 226 NONAME
	_ZN16CContactDatabase8CompactLEv @ 227 NONAME
	_ZN16CContactDatabase8RecoverLEv @ 228 NONAME
	_ZN16CContactDatabase8ReplaceLENS_13TThreadAccessE @ 229 NONAME
	_ZN16CContactDatabase8ReplaceLERK7TDesC16NS_13TThreadAccessE @ 230 NONAME
	_ZN16CContactDatabase9BlobSizeLEl @ 231 NONAME ABSENT
	_ZN16CContactDatabase9CompressLEv @ 232 NONAME ABSENT
	_ZN16CContactDatabase9ReadPrefLEl @ 233 NONAME ABSENT
	_ZN16CContactDatabaseD0Ev @ 234 NONAME
	_ZN16CContactDatabaseD1Ev @ 235 NONAME
	_ZN16CContactDatabaseD2Ev @ 236 NONAME
	_ZN16CContactICCEntry4NewLERK12CContactItem @ 237 NONAME
	_ZN16CContactICCEntryD0Ev @ 238 NONAME
	_ZN16CContactICCEntryD1Ev @ 239 NONAME
	_ZN16CContactICCEntryD2Ev @ 240 NONAME
	_ZN16CContactTemplate4NewLEPK12CContactItem @ 241 NONAME
	_ZN16CContactTemplate4NewLEv @ 242 NONAME
	_ZN16CContactTemplate5NewLCEPK12CContactItem @ 243 NONAME
	_ZN16CContactTemplate5NewLCEv @ 244 NONAME
	_ZN16CContactViewBase10ConstructLEv @ 245 NONAME
	_ZN16CContactViewBase12IndexesEqualERK21TContactIdWithMappingS2_ @ 246 NONAME
	_ZN16CContactViewBase14CompareFieldsLERK12CViewContactS2_ @ 247 NONAME
	_ZN16CContactViewBase14GetContactIdsLERK9CArrayFixIiER15CContactIdArray @ 248 NONAME
	_ZN16CContactViewBase15NotifyObserversERK17TContactViewEvent @ 249 NONAME
	_ZN16CContactViewBase16MatchesCriteriaLERK12CViewContactRK12MDesC16Array @ 250 NONAME
	_ZN16CContactViewBase16MatchesCriteriaLERK12CViewContactRK12MDesC16ArrayNS_11TSearchTypeE @ 251 NONAME
	_ZN16CContactViewBase16MatchesCriteriaLERK12CViewContactRK12MDesC16ArrayNS_11TSearchTypeEPNS_25CContactViewBaseExtensionE @ 252 NONAME
	_ZN16CContactViewBase19NotifyObserverAsyncER20MContactViewObserverRK17TContactViewEvent @ 253 NONAME
	_ZN16CContactViewBase23ContactsMatchingPrefixLERK12MDesC16ArrayR13RPointerArrayI12CViewContactE @ 254 NONAME
	_ZN16CContactViewBase23GetViewFindConfigPluginEv @ 255 NONAME
	_ZN16CContactViewBase23SetViewFindConfigPluginE4TUid @ 256 NONAME
	_ZN16CContactViewBase25ContactsMatchingCriteriaLERK12MDesC16ArrayR13RPointerArrayI12CViewContactE @ 257 NONAME
	_ZN16CContactViewBase27CContactViewBase_Reserved_1ENS_9TFunctionEPv @ 258 NONAME
	_ZN16CContactViewBase4OpenER20MContactViewObserver @ 259 NONAME
	_ZN16CContactViewBase5CloseERK20MContactViewObserver @ 260 NONAME
	_ZN16CContactViewBase5OpenLER20MContactViewObserver @ 261 NONAME
	_ZN16CContactViewBase8IdsEqualERK21TContactIdWithMappingS2_ @ 262 NONAME
	_ZN16CContactViewBase8IdsMatchERK12CViewContactS2_ @ 263 NONAME
	_ZThn4_N16CContactDatabase20HandleDatabaseEventLERK23TContactDbObserverEvent @ 264 NONAME ; #<thunk>#
	_ZN16CContactViewBaseC2ERK16CContactDatabase @ 265 NONAME
	_ZN16CContactViewBaseD0Ev @ 266 NONAME
	_ZN16CContactViewBaseD1Ev @ 267 NONAME
	_ZN16CContactViewBaseD2Ev @ 268 NONAME
	_ZN16MContactUiActive26MContactUiActive_Reserved1Ev @ 269 NONAME
	_ZN17CContactDateField30CContactFieldStorage_Reserved1Ev @ 270 NONAME
	_ZN17CContactDateField7SetTimeE5TTime @ 271 NONAME
	_ZN17CContactDateField7SetTimeE9TDateTime @ 272 NONAME
	_ZN17CContactItemField10ResetStoreEv @ 273 NONAME
	_ZN17CContactItemField10SetMappingE4TUid @ 274 NONAME
	_ZN17CContactItemField10SetPrivateEi @ 275 NONAME
	_ZN17CContactItemField11SetDisabledEi @ 276 NONAME
	_ZN17CContactItemField11SetReadOnlyEi @ 277 NONAME
	_ZN17CContactItemField12IsValidLabelERK7TDesC16Ri @ 278 NONAME
	_ZN17CContactItemField12SetSpeedDialEi @ 279 NONAME
	_ZN17CContactItemField12SetUserFlagsEj @ 280 NONAME
	_ZN17CContactItemField13AddFieldTypeLE4TUid @ 281 NONAME
	_ZN17CContactItemField14SetSynchronizeEi @ 282 NONAME
	_ZN17CContactItemField15RemoveFieldTypeE4TUid @ 283 NONAME
	_ZN17CContactItemField16SetTemplateFieldEi @ 284 NONAME
	_ZN17CContactItemField17SetUserAddedFieldEi @ 285 NONAME
	_ZN17CContactItemField4NewLERKS_ @ 286 NONAME
	_ZN17CContactItemField4NewLEj @ 287 NONAME
	_ZN17CContactItemField4NewLEj4TUid @ 288 NONAME
	_ZN17CContactItemField4NewLEjRK12CContentType @ 289 NONAME
	_ZN17CContactItemField5NewLCERKS_ @ 290 NONAME
	_ZN17CContactItemField5NewLCEj @ 291 NONAME
	_ZN17CContactItemField5NewLCEj4TUid @ 292 NONAME
	_ZN17CContactItemField5NewLCEjRK12CContentType @ 293 NONAME
	_ZN17CContactItemField5NewLCEv @ 294 NONAME
	_ZN17CContactItemField5SetIdEi @ 295 NONAME
	_ZN17CContactItemField8SetLabelEP7HBufC16 @ 296 NONAME
	_ZN17CContactItemField9SetHiddenEi @ 297 NONAME
	_ZN17CContactItemField9SetLabelLERK7TDesC16 @ 298 NONAME
	_ZN17CContactItemFieldD0Ev @ 299 NONAME
	_ZN17CContactItemFieldD1Ev @ 300 NONAME
	_ZN17CContactItemFieldD2Ev @ 301 NONAME
	_ZN17CContactLocalView10ConstructLER20MContactViewObserverRK21RContactViewSortOrder @ 302 NONAME
	_ZN17CContactLocalView27CContactViewBase_Reserved_1EN16CContactViewBase9TFunctionEPv @ 303 NONAME
	_ZN17CContactLocalView28CContactLocalView_Reserved_1Ev @ 304 NONAME
	_ZN17CContactLocalView28CContactLocalView_Reserved_2Ev @ 305 NONAME
	_ZN17CContactLocalView4NewLER20MContactViewObserverRK16CContactDatabaseRK21RContactViewSortOrder23TContactViewPreferences @ 306 NONAME
	_ZN17CContactLocalView5SortLERK21RContactViewSortOrder @ 307 NONAME
	_ZN17CContactLocalView7InsertLEl @ 308 NONAME
	_ZN17CContactLocalView7RemoveLEl @ 309 NONAME
	_ZN17CContactLocalViewC1ERK16CContactDatabase23TContactViewPreferences @ 310 NONAME
	_ZN17CContactLocalViewC2ERK16CContactDatabase23TContactViewPreferences @ 311 NONAME
	_ZN17CContactLocalViewD0Ev @ 312 NONAME
	_ZN17CContactLocalViewD1Ev @ 313 NONAME
	_ZN17CContactLocalViewD2Ev @ 314 NONAME
	_ZN17CContactTextField12SetTextArrayEP12MDesC16Array @ 315 NONAME
	_ZN17CContactTextField16SetStandardTextLERK7TDesC16 @ 316 NONAME
	_ZN17CContactTextField20SetStandardTextArrayEP12MDesC16Array @ 317 NONAME
	_ZN17CContactTextField30CContactFieldStorage_Reserved1Ev @ 318 NONAME
	_ZN17CContactTextField7SetTextEP7HBufC16 @ 319 NONAME
	_ZN17CContactTextField8SetTextLERK7TDesC16 @ 320 NONAME
	_ZN17CContactTextFieldD0Ev @ 321 NONAME
	_ZN17CContactTextFieldD1Ev @ 322 NONAME
	_ZN17CContactTextFieldD2Ev @ 323 NONAME
	_ZN18CContactAgentField10SetAgentIdEl @ 324 NONAME
	_ZN18CContactAgentField30CContactFieldStorage_Reserved1Ev @ 325 NONAME
	_ZN18CContactRemoteView13GetSortOrderLER21RContactViewSortOrder @ 326 NONAME
	_ZN18CContactRemoteView4NewLER20MContactViewObserverRK16CContactDatabaseRK21RContactViewSortOrder23TContactViewPreferences @ 327 NONAME
	_ZN18CContactStoreField30CContactFieldStorage_Reserved1Ev @ 328 NONAME
	_ZN18CContactStoreField9SetThingLEPK8CBufBase @ 329 NONAME
	_ZN18CContactStoreField9SetThingLERK6HBufC8 @ 330 NONAME
	_ZN18CContactStoreField9SetThingLERK6TDesC8 @ 331 NONAME
	_ZN19CContactItemViewDef12InternalizeLER11RReadStream @ 332 NONAME
	_ZN19CContactItemViewDef4AddLE4TUid @ 333 NONAME
	_ZN19CContactItemViewDef4NewLENS_4TUseENS_5TModeE @ 334 NONAME
	_ZN19CContactItemViewDef5NewLCENS_4TUseENS_5TModeE @ 335 NONAME
	_ZN19CContactItemViewDef6RemoveE4TUid @ 336 NONAME
	_ZN19CContactItemViewDef6RemoveEi @ 337 NONAME
	_ZN19CContactItemViewDef8ContainsERK12CContactItem @ 338 NONAME
	_ZN19CContactNumberField30CContactFieldStorage_Reserved1Ev @ 339 NONAME ABSENT
	_ZN19CContactNumberField9SetNumberEi @ 340 NONAME ABSENT
	_ZN19TContactTextDefItemC1E4TUid @ 341 NONAME
	_ZN19TContactTextDefItemC1E4TUidRK7TDesC16 @ 342 NONAME
	_ZN19TContactTextDefItemC1Ev @ 343 NONAME
	_ZN19TContactTextDefItemC2E4TUid @ 344 NONAME
	_ZN19TContactTextDefItemC2E4TUidRK7TDesC16 @ 345 NONAME
	_ZN19TContactTextDefItemC2Ev @ 346 NONAME
	_ZN20CContactCardTemplate17GetTemplateLabelLEv @ 347 NONAME
	_ZN20CContactCardTemplate17HasItemLabelFieldEv @ 348 NONAME
	_ZN20CContactCardTemplate17SetTemplateLabelLERK7TDesC16 @ 349 NONAME
	_ZN20CContactCardTemplate4NewLEPK12CContactItem @ 350 NONAME
	_ZN20CContactCardTemplate4NewLEv @ 351 NONAME
	_ZN20CContactCardTemplate5NewLCEPK12CContactItem @ 352 NONAME
	_ZN20CContactCardTemplate5NewLCEv @ 353 NONAME
	_ZN20CContactFieldStorage30CContactFieldStorage_Reserved1Ev @ 354 NONAME
	_ZN20CContactItemFieldSet12UpdateFieldLERK17CContactItemFieldi @ 355 NONAME
	_ZN20CContactItemFieldSet16UpdateFieldSyncLERK17CContactItemFieldi @ 356 NONAME
	_ZN20CContactItemFieldSet4AddLER17CContactItemField @ 357 NONAME
	_ZN20CContactItemFieldSet4MoveEii @ 358 NONAME
	_ZN20CContactItemFieldSet4NewLEv @ 359 NONAME
	_ZN20CContactItemFieldSet5NewLCEv @ 360 NONAME
	_ZN20CContactItemFieldSet6RemoveEi @ 361 NONAME
	_ZN20CContactItemFieldSet6StoreLER12CStreamStoreR12RWriteStreamS1_ @ 362 NONAME
	_ZN20CContactItemFieldSet7InsertLEiR17CContactItemField @ 363 NONAME
	_ZN20CContactItemFieldSet8RestoreLER12CStreamStore9TStreamIdPS0_RK19CContactItemViewDefR11RReadStream @ 364 NONAME
	_ZN20CContactItemFieldSetD0Ev @ 365 NONAME
	_ZN20CContactItemFieldSetD1Ev @ 366 NONAME
	_ZN20CContactItemFieldSetD2Ev @ 367 NONAME
	_ZN20MContactSynchroniser31MContactSynchroniser_Reserved_1Ev @ 368 NONAME
	_ZN21CContactItemPlusGroupD0Ev @ 369 NONAME
	_ZN21CContactItemPlusGroupD1Ev @ 370 NONAME
	_ZN21CContactItemPlusGroupD2Ev @ 371 NONAME
	_ZN21RContactViewSortOrder12InternalizeLER11RReadStream @ 372 NONAME
	_ZN21RContactViewSortOrder5CloseEv @ 373 NONAME
	_ZN21RContactViewSortOrder5CopyLERKS_ @ 374 NONAME
	_ZN21RContactViewSortOrderC1Ev @ 375 NONAME
	_ZN21RContactViewSortOrderC2Ev @ 376 NONAME
	_ZN22CContactChangeNotifier4NewLER16CContactDatabaseP18MContactDbObserver @ 377 NONAME
	_ZN22CContactChangeNotifierD0Ev @ 378 NONAME
	_ZN22CContactChangeNotifierD1Ev @ 379 NONAME
	_ZN22CContactChangeNotifierD2Ev @ 380 NONAME
	_ZN22CContactNamedLocalView16ChangeSortOrderLER21RContactViewSortOrder @ 381 NONAME
	_ZN22CContactNamedLocalView4NameEv @ 382 NONAME
	_ZN22CContactNamedLocalView4NewLER20MContactViewObserverRK7TDesC16RK16CContactDatabaseRK21RContactViewSortOrder23TContactViewPreferences @ 383 NONAME
	_ZN23CContactNamedRemoteView16ChangeSortOrderLERK21RContactViewSortOrder @ 384 NONAME
	_ZN23CContactNamedRemoteView4NewLER20MContactViewObserverRK7TDesC16RK16CContactDatabaseRK21RContactViewSortOrder23TContactViewPreferences @ 385 NONAME
	_ZNK11CIdleFinder10IsCompleteEv @ 386 NONAME
	_ZNK11CIdleFinder5ErrorEv @ 387 NONAME
	_ZNK12CContactCard14GroupsJoinedLCEv @ 388 NONAME
	_ZNK12CContactCard4TypeEv @ 389 NONAME
	_ZNK12CContactItem10CardFieldsEv @ 390 NONAME
	_ZNK12CContactItem10UidStringLEx @ 391 NONAME
	_ZNK12CContactItem12LastModifiedEv @ 392 NONAME
	_ZNK12CContactItem13TemplateRefIdEv @ 393 NONAME
	_ZNK12CContactItem2IdEv @ 394 NONAME
	_ZNK12CContactItem9IsDeletedEv @ 395 NONAME
	_ZNK12CContentType14FieldTypeCountEv @ 396 NONAME
	_ZNK12CContentType17ContainsFieldTypeE4TUid @ 397 NONAME
	_ZNK12CContentType20IsEqualForSyncUpdateERKS_ @ 398 NONAME
	_ZNK12CContentType21SupportsMultipleLinesEv @ 399 NONAME
	_ZNK12CContentType7MappingEv @ 400 NONAME
	_ZNK12CContentType9FieldTypeEi @ 401 NONAME
	_ZNK12CContentTypeeqERKS_ @ 402 NONAME
	_ZNK12CViewContact10FieldCountEv @ 403 NONAME
	_ZNK12CViewContact12ExternalizeLER12RWriteStream @ 404 NONAME
	_ZNK12CViewContact16ExternalizedSizeEv @ 405 NONAME
	_ZNK12CViewContact20ContactMatchesFilterEi @ 406 NONAME
	_ZNK12CViewContact5FieldEi @ 407 NONAME
	_ZNK13CContactGroup14GroupsJoinedLCEv @ 408 NONAME
	_ZNK13CContactGroup14ItemsContainedEv @ 409 NONAME
	_ZNK13CContactGroup16ItemsContainedLCEv @ 410 NONAME
	_ZNK13CContactGroup4TypeEv @ 411 NONAME
	_ZNK13CContactGroup8IsSystemEv @ 412 NONAME
	_ZNK15CContactIdArray12ExternalizeLER12RWriteStream @ 413 NONAME
	_ZNK15CContactIdArray4FindEl @ 414 NONAME
	_ZNK15CContactOwnCard14GroupsJoinedLCEv @ 415 NONAME
	_ZNK15CContactOwnCard4TypeEv @ 416 NONAME
	_ZNK15CContactTextDef13FallbackFieldEv @ 417 NONAME
	_ZNK15CContactViewDef12ExternalizeLER12RWriteStream @ 418 NONAME
	_ZNK15CContactViewDef6GroupsEv @ 419 NONAME
	_ZNK15CContactViewDef7ItemDefEv @ 420 NONAME
	_ZNK16CContactDatabase10TemplateIdEv @ 421 NONAME
	_ZNK16CContactDatabase12ConnectionIdEv @ 422 NONAME
	_ZNK16CContactDatabase14GetCurrentItemEv @ 423 NONAME
	_ZNK16CContactDatabase14PrefTemplateIdEv @ 424 NONAME
	_ZNK16CContactDatabase14TextDefinitionEv @ 425 NONAME
	_ZNK16CContactDatabase15GetGroupIdListLEv @ 426 NONAME
	_ZNK16CContactDatabase15PhoneMatchListLERK7TDesC16 @ 427 NONAME ABSENT
	_ZNK16CContactDatabase18GetCurrentDatabaseER6TDes16 @ 428 NONAME
	_ZNK16CContactDatabase18SetCurrentDatabaseERK7TDesC16 @ 429 NONAME
	_ZNK16CContactDatabase18WastedSpaceInBytesEv @ 430 NONAME
	_ZNK16CContactDatabase19TemplateContentTypeERK17CContactItemField @ 431 NONAME
	_ZNK16CContactDatabase20GetDbViewContactTypeEv @ 432 NONAME
	_ZNK16CContactDatabase22GetCardTemplateIdListLEv @ 433 NONAME
	_ZNK16CContactDatabase7VersionEv @ 434 NONAME
	_ZNK16CContactDatabase8FileSizeEv @ 435 NONAME
	_ZNK16CContactDatabase9IsDamagedEv @ 436 NONAME
	_ZNK16CContactDatabase9MachineIdEv @ 437 NONAME
	_ZNK16CContactDatabase9OwnCardIdEv @ 438 NONAME
	_ZNK16CContactDatabase9SortOrderEv @ 439 NONAME
	_ZNK16CContactTemplate4TypeEv @ 440 NONAME
	_ZNK16CContactViewBase21FieldsWithSeparatorLCERK13RPointerArrayI12CViewContactEiRK7TDesC16 @ 441 NONAME
	_ZNK16CContactViewBase5ErrorEv @ 442 NONAME
	_ZNK17CContactDateField4TimeEv @ 443 NONAME
	_ZNK17CContactItemField11ContentTypeEv @ 444 NONAME
	_ZNK17CContactItemField11StorageTypeEv @ 445 NONAME
	_ZNK17CContactItemField11TextStorageEv @ 446 NONAME
	_ZNK17CContactItemField12AgentStorageEv @ 447 NONAME
	_ZNK17CContactItemField12StoreStorageEv @ 448 NONAME
	_ZNK17CContactItemField13NumberStorageEv @ 449 NONAME ABSENT
	_ZNK17CContactItemField15DateTimeStorageEv @ 450 NONAME
	_ZNK17CContactItemField20IsTemplateLabelFieldEv @ 451 NONAME
	_ZNK17CContactItemField2IdEv @ 452 NONAME
	_ZNK17CContactItemField5LabelEv @ 453 NONAME
	_ZNK17CContactItemField7StorageEv @ 454 NONAME
	_ZNK17CContactItemField9UserFlagsEv @ 455 NONAME
	_ZNK17CContactLocalView9SortOrderEv @ 456 NONAME
	_ZNK17CContactTextField14StandardTextLCEv @ 457 NONAME
	_ZNK17CContactTextField4TextEv @ 458 NONAME
	_ZNK18CContactAgentField5ValueEv @ 459 NONAME
	_ZNK18CContactStoreField5ThingEv @ 460 NONAME
	_ZNK19CContactItemViewDef10MatchesAllEv @ 461 NONAME
	_ZNK19CContactItemViewDef12ExternalizeLER12RWriteStream @ 462 NONAME
	_ZNK19CContactItemViewDef4FindE4TUid @ 463 NONAME
	_ZNK19CContactItemViewDef4FindERK12CContentType @ 464 NONAME
	_ZNK19CContactNumberField5ValueEv @ 465 NONAME ABSENT
	_ZNK20CContactCardTemplate4TypeEv @ 466 NONAME
	_ZNK20CContactItemFieldSet8FindNextE4TUidS0_i @ 467 NONAME
	_ZNK20CContactItemFieldSet8FindNextE4TUidi @ 468 NONAME
	_ZNK21CContactItemPlusGroup12GroupsJoinedEv @ 469 NONAME
	_ZNK21CContactItemPlusGroup14GroupsJoinedLCEv @ 470 NONAME
	_ZNK21RContactViewSortOrder12ExternalizeLER12RWriteStream @ 471 NONAME
	_ZNK21RContactViewSortOrder16ExternalizedSizeEv @ 472 NONAME
	_ZNK21RContactViewSortOrdereqERKS_ @ 473 NONAME
	_ZTI12CViewContact @ 474 NONAME ; #<TI>#
	_ZTI16CContactViewBase @ 475 NONAME ; #<TI>#
	_ZTI16MContactUiActive @ 476 NONAME ; #<TI>#
	_ZTI17CContactLocalView @ 477 NONAME ; #<TI>#
	_ZTI20CContactFieldStorage @ 478 NONAME ; #<TI>#
	_ZTI20MContactSynchroniser @ 479 NONAME ; #<TI>#
	_ZTV12CViewContact @ 480 NONAME ; #<VT>#
	_ZTV16CContactViewBase @ 481 NONAME ; #<VT>#
	_ZTV16MContactUiActive @ 482 NONAME ; #<VT>#
	_ZTV17CContactLocalView @ 483 NONAME ; #<VT>#
	_ZTV20CContactFieldStorage @ 484 NONAME ; #<VT>#
	_ZTV20MContactSynchroniser @ 485 NONAME ; #<VT>#
	_ZN16CContactViewBase17CompareContactIdsERK12CViewContactS2_ @ 486 NONAME
	_ZN16CContactViewBase17ContactIsSortableERK12CViewContact @ 487 NONAME
	_ZN17CContactLocalView4NewLER20MContactViewObserverRK16CContactDatabaseRK21RContactViewSortOrder23TContactViewPreferencesRK6TDesC8 @ 488 NONAME
	_ZN18CContactRemoteView4NewLER20MContactViewObserverRK16CContactDatabaseRK21RContactViewSortOrder23TContactViewPreferencesRK6TDesC8 @ 489 NONAME
	_ZN22CContactNamedLocalView4NewLER20MContactViewObserverRK7TDesC16RK16CContactDatabaseRK21RContactViewSortOrder23TContactViewPreferencesRK6TDesC8 @ 490 NONAME
	_ZN23CContactNamedRemoteView4NewLER20MContactViewObserverRK7TDesC16RK16CContactDatabaseRK21RContactViewSortOrder23TContactViewPreferencesRK6TDesC8 @ 491 NONAME
	_ZNK16CContactViewBase22CompareContactsAndIdsLERK12CViewContactS2_ @ 492 NONAME
	_ZNK16CContactViewBase24GetViewSortPluginImplUidEv @ 493 NONAME
	_ZTI10CCntFilter @ 494 NONAME ; #<TI>#
	_ZTI10CSortArray @ 495 NONAME ABSENT ; #<TI>#
	_ZTI11CIdleFinder @ 496 NONAME ; #<TI>#
	_ZTI12CContactCard @ 497 NONAME ; #<TI>#
	_ZTI12CContactItem @ 498 NONAME ; #<TI>#
	_ZTI12CContentType @ 499 NONAME ; #<TI>#
	_ZTI13CContactGroup @ 500 NONAME ; #<TI>#
	_ZTI13RContactTable @ 501 NONAME ABSENT ; #<TI>#
	_ZTI14CCntIdleSorter @ 502 NONAME ABSENT ; #<TI>#
	_ZTI14CContactPlugin @ 503 NONAME ABSENT ; #<TI>#
	_ZTI14CContactTables @ 504 NONAME ABSENT ; #<TI>#
	_ZTI14CPrivConverter @ 505 NONAME ABSENT ; #<TI>#
	_ZTI14RIdentityTable @ 506 NONAME ABSENT ; #<TI>#
	_ZTI15CContactIdArray @ 507 NONAME ; #<TI>#
	_ZTI15CContactOwnCard @ 508 NONAME ; #<TI>#
	_ZTI15CContactViewDef @ 509 NONAME ; #<TI>#
	_ZTI16CContactDatabase @ 510 NONAME ; #<TI>#
	_ZTI16CContactICCEntry @ 511 NONAME ; #<TI>#
	_ZTI16CContactTemplate @ 512 NONAME ; #<TI>#
	_ZTI17CContactDateField @ 513 NONAME ; #<TI>#
	_ZTI17CContactItemField @ 514 NONAME ; #<TI>#
	_ZTI17CContactTextField @ 515 NONAME ; #<TI>#
	_ZTI17CTextFieldMinimal @ 516 NONAME ABSENT ; #<TI>#
	_ZTI17TKeyCmpTextLength @ 517 NONAME ABSENT ; #<TI>#
	_ZTI18CContactActiveBase @ 518 NONAME ; #<TI>#
	_ZTI18CContactAgentField @ 519 NONAME ; #<TI>#
	_ZTI18CContactRemoteView @ 520 NONAME ; #<TI>#
	_ZTI18CContactSrvSession @ 521 NONAME ABSENT ; #<TI>#
	_ZTI18CContactStoreField @ 522 NONAME ; #<TI>#
	_ZTI18CIdleContactSorter @ 523 NONAME ABSENT ; #<TI>#
	_ZTI19CContactNumberField @ 524 NONAME ABSENT ; #<TI>#
	_ZTI19CContactPhoneParser @ 525 NONAME ABSENT ; #<TI>#
	_ZTI19CPrivFindViewColSet @ 526 NONAME ABSENT ; #<TI>#
	_ZTI20CContactCardTemplate @ 527 NONAME ; #<TI>#
	_ZTI20CContactItemFieldSet @ 528 NONAME ; #<TI>#
	_ZTI21CContactItemPlusGroup @ 529 NONAME ; #<TI>#
	_ZTI21CViewContactExtension @ 530 NONAME ABSENT ; #<TI>#
	_ZTI22CContactChangeNotifier @ 531 NONAME ; #<TI>#
	_ZTI22CContactNamedLocalView @ 532 NONAME ; #<TI>#
	_ZTI22CContactRemoteViewBase @ 533 NONAME ABSENT ; #<TI>#
	_ZTI22CPrivateChangeNotifier @ 534 NONAME ABSENT ; #<TI>#
	_ZTI23CContactNamedRemoteView @ 535 NONAME ; #<TI>#
	_ZTI26CContactRemoteViewNotifier @ 536 NONAME ABSENT ; #<TI>#
	_ZTI26CContactSynchroniserLoader @ 537 NONAME ABSENT ; #<TI>#
	_ZTI27CPrivateChangeEventNotifier @ 538 NONAME ABSENT ; #<TI>#
	_ZTIN16CContactViewBase25CContactViewBaseExtensionE @ 539 NONAME ; #<TI>#
	_ZTV10CCntFilter @ 540 NONAME ; #<VT>#
	_ZTV10CSortArray @ 541 NONAME ABSENT ; #<VT>#
	_ZTV11CIdleFinder @ 542 NONAME ; #<VT>#
	_ZTV12CContactCard @ 543 NONAME ; #<VT>#
	_ZTV12CContactItem @ 544 NONAME ; #<VT>#
	_ZTV12CContentType @ 545 NONAME ; #<VT>#
	_ZTV13CContactGroup @ 546 NONAME ; #<VT>#
	_ZTV13RContactTable @ 547 NONAME ABSENT ; #<VT>#
	_ZTV14CCntIdleSorter @ 548 NONAME ABSENT ; #<VT>#
	_ZTV14CContactPlugin @ 549 NONAME ABSENT ; #<VT>#
	_ZTV14CContactTables @ 550 NONAME ABSENT ; #<VT>#
	_ZTV14CPrivConverter @ 551 NONAME ABSENT ; #<VT>#
	_ZTV14RIdentityTable @ 552 NONAME ABSENT ; #<VT>#
	_ZTV15CContactIdArray @ 553 NONAME ; #<VT>#
	_ZTV15CContactOwnCard @ 554 NONAME ; #<VT>#
	_ZTV15CContactViewDef @ 555 NONAME ; #<VT>#
	_ZTV16CContactDatabase @ 556 NONAME ; #<VT>#
	_ZTV16CContactICCEntry @ 557 NONAME ; #<VT>#
	_ZTV16CContactTemplate @ 558 NONAME ; #<VT>#
	_ZTV17CContactDateField @ 559 NONAME ; #<VT>#
	_ZTV17CContactItemField @ 560 NONAME ; #<VT>#
	_ZTV17CContactTextField @ 561 NONAME ; #<VT>#
	_ZTV17CTextFieldMinimal @ 562 NONAME ABSENT ; #<VT>#
	_ZTV17TKeyCmpTextLength @ 563 NONAME ABSENT ; #<VT>#
	_ZTV18CContactActiveBase @ 564 NONAME ; #<VT>#
	_ZTV18CContactAgentField @ 565 NONAME ; #<VT>#
	_ZTV18CContactRemoteView @ 566 NONAME ; #<VT>#
	_ZTV18CContactSrvSession @ 567 NONAME ABSENT ; #<VT>#
	_ZTV18CContactStoreField @ 568 NONAME ; #<VT>#
	_ZTV18CIdleContactSorter @ 569 NONAME ABSENT ; #<VT>#
	_ZTV19CContactNumberField @ 570 NONAME ABSENT ; #<VT>#
	_ZTV19CContactPhoneParser @ 571 NONAME ABSENT ; #<VT>#
	_ZTV19CPrivFindViewColSet @ 572 NONAME ABSENT ; #<VT>#
	_ZTV20CContactCardTemplate @ 573 NONAME ; #<VT>#
	_ZTV20CContactItemFieldSet @ 574 NONAME ; #<VT>#
	_ZTV21CContactItemPlusGroup @ 575 NONAME ; #<VT>#
	_ZTV21CViewContactExtension @ 576 NONAME ABSENT ; #<VT>#
	_ZTV22CContactChangeNotifier @ 577 NONAME ; #<VT>#
	_ZTV22CContactNamedLocalView @ 578 NONAME ; #<VT>#
	_ZTV22CContactRemoteViewBase @ 579 NONAME ABSENT ; #<VT>#
	_ZTV22CPrivateChangeNotifier @ 580 NONAME ABSENT ; #<VT>#
	_ZTV23CContactNamedRemoteView @ 581 NONAME ; #<VT>#
	_ZTV26CContactRemoteViewNotifier @ 582 NONAME ABSENT ; #<VT>#
	_ZTV26CContactSynchroniserLoader @ 583 NONAME ABSENT ; #<VT>#
	_ZTV27CPrivateChangeEventNotifier @ 584 NONAME ABSENT ; #<VT>#
	_ZTVN16CContactViewBase25CContactViewBaseExtensionE @ 585 NONAME ; #<VT>#
	_ZN16CContactDatabase14ListDatabasesLE10TDriveUnit @ 586 NONAME
	_ZN16CContactDatabase14ListDatabasesLEv @ 587 NONAME
	_ZN16CContactDatabase15DeleteDatabaseLERK7TDesC16 @ 588 NONAME
	_ZN16CContactDatabase22ContactDatabaseExistsLERK7TDesC16 @ 589 NONAME
	_ZN16CContactDatabase29DefaultContactDatabaseExistsLEv @ 590 NONAME
	_ZN16CContactDatabase18LockServerConnectLERK7TDesC16i @ 591 NONAME
	_ZN16CContactDatabase19LockServerCallBackLEj @ 592 NONAME
	_ZN16CContactDatabase17LockServerCleanupEv @ 593 NONAME
	_ZTI21CContactClientSession @ 594 NONAME ABSENT
	_ZTV21CContactClientSession @ 595 NONAME ABSENT
	_ZN20CContactSynchroniserD0Ev @ 596 NONAME
	_ZN20CContactSynchroniserD1Ev @ 597 NONAME
	_ZN20CContactSynchroniserD2Ev @ 598 NONAME
	_ZTI20CContactSynchroniser @ 599 NONAME ; #<TI>#
	_ZTV20CContactSynchroniser @ 600 NONAME ; #<VT>#
	_ZN16CContactDatabase4OpenER14TRequestStatusNS_13TThreadAccessE @ 601 NONAME
	_ZN16CContactDatabase4OpenERK7TDesC16R14TRequestStatusNS_13TThreadAccessE @ 602 NONAME
	_ZN21CContactOpenOperation12TakeDatabaseEv @ 603 NONAME
	_ZN21CContactOpenOperationD0Ev @ 604 NONAME
	_ZN21CContactOpenOperationD1Ev @ 605 NONAME
	_ZN21CContactOpenOperationD2Ev @ 606 NONAME
	_ZTI21CContactOpenOperation @ 607 NONAME
	_ZTV21CContactOpenOperation @ 608 NONAME
	_ZTI22CContactStorageWatcher @ 609 NONAME ABSENT ; #<TI>#
	_ZTV22CContactStorageWatcher @ 610 NONAME ABSENT ; #<VT>#
	_ZN11ContactGuid15GetCreationDateER6TDes16x @ 611 NONAME
	_ZN12CCntPackager19GetReceivingBufferLEi @ 612 NONAME
	_ZN12CCntPackager21SetBufferFromMessageLERK9RMessage2j @ 613 NONAME
	_ZN12CCntPackager4NewLEv @ 614 NONAME
	_ZN12CCntPackager5ClearEv @ 615 NONAME
	_ZN12CCntPackager5PackLERK10CCntFilter @ 616 NONAME
	_ZN12CCntPackager5PackLERK12CContactItem @ 617 NONAME
	_ZN12CCntPackager5PackLERK12CContactItemRi @ 618 NONAME
	_ZN12CCntPackager5PackLERK12CContentType @ 619 NONAME
	_ZN12CCntPackager5PackLERK12CDesC16Array @ 620 NONAME
	_ZN12CCntPackager5PackLERK12CViewContact @ 621 NONAME
	_ZN12CCntPackager5PackLERK13CArrayFixFlatI4TUidE @ 622 NONAME
	_ZN12CCntPackager5PackLERK15CContactIdArray @ 623 NONAME
	_ZN12CCntPackager5PackLERK15CContactTextDef @ 624 NONAME
	_ZN12CCntPackager5PackLERK15CContactViewDef @ 625 NONAME
	_ZN12CCntPackager5PackLERK19CContactItemViewDef @ 626 NONAME
	_ZN12CCntPackager5PackLERK9CArrayFixIN16CContactDatabase9TSortPrefEE @ 627 NONAME
	_ZN12CCntPackagerD0Ev @ 628 NONAME
	_ZN12CCntPackagerD1Ev @ 629 NONAME
	_ZN12CCntPackagerD2Ev @ 630 NONAME
	_ZN12CContactItem20SetHasCompressedGuidEi @ 631 NONAME
	_ZN12CContactItem22RestoreTemplateFieldsLERK20CContactItemFieldSetS2_RK19CContactItemViewDef @ 632 NONAME
	_ZN12CContactItem5NewLCE4TUid @ 633 NONAME
	_ZN12CViewContact14SetContactHintEi @ 634 NONAME
	_ZN12CViewContact17SetContactTypeUidE4TUid @ 635 NONAME
	_ZN12CViewContact29SetFirstFieldForBlankContactLERK7TDesC16 @ 636 NONAME
	_ZN12CViewContact4NewLEli @ 637 NONAME
	_ZN12CViewContact5ResetEv @ 638 NONAME
	_ZN13CContactGroup11AddContactLEl @ 639 NONAME
	_ZN13CContactGroup14RemoveContactLEl @ 640 NONAME
	_ZN16CContactDatabase9TSortPref12InternalizeLER11RReadStream @ 641 NONAME
	_ZN17CContactItemField12RestoreTextLEP7HBufC16i @ 642 NONAME
	_ZN17CContactItemField15RestoreIfMatchLER11RReadStreamPK20CContactItemFieldDefPK20CContactItemFieldSetP7HBufC16i @ 643 NONAME
	_ZN17CContactItemField18RestoreFieldTypesLER11RReadStreamPK20CContactItemFieldSet @ 644 NONAME
	_ZN17CContactItemField19SetCustomFilterableE18EContactFieldFlags @ 645 NONAME
	_ZN17CContactItemField5ResetEv @ 646 NONAME
	_ZN17CContactLocalView4NewLER20MContactViewObserverRK16CContactDatabaseRK21RContactViewSortOrder23TContactViewPreferencesP27MLplPersistenceLayerFactoryRK6TDesC8 @ 647 NONAME
	_ZN20CContactItemFieldSet6StoreLER12CStreamStorePK12CContactItemR12RWriteStreamS1_P14CContactTables @ 648 NONAME
	_ZN20CContactItemFieldSet8RestoreLER12CStreamStore9TStreamIdPS0_RK19CContactItemViewDefPK12CContactItemP7HBufC16 @ 649 NONAME
	_ZN22CContactNamedLocalView4NewLER20MContactViewObserverRK7TDesC16RK16CContactDatabaseRK21RContactViewSortOrder23TContactViewPreferencesP27MLplPersistenceLayerFactoryRK6TDesC8 @ 650 NONAME
	_ZNK12CCntPackager15UnpackCntItemLCEv @ 651 NONAME
	_ZNK12CCntPackager17UnpackCArrayFixLCEv @ 652 NONAME
	_ZNK12CCntPackager17UnpackCntFilterLCEv @ 653 NONAME
	_ZNK12CCntPackager17UnpackDesCArrayLCEv @ 654 NONAME
	_ZNK12CCntPackager17UnpackTUidArrayLCEv @ 655 NONAME
	_ZNK12CCntPackager18UnpackCntIdArrayLCEv @ 656 NONAME
	_ZNK12CCntPackager18UnpackCntTextDefLCEv @ 657 NONAME
	_ZNK12CCntPackager18UnpackCntViewDefLCEv @ 658 NONAME
	_ZNK12CCntPackager19UnpackViewContactLCEv @ 659 NONAME
	_ZNK12CCntPackager21GetTransmittingBufferEv @ 660 NONAME
	_ZNK12CCntPackager22UnpackCntContentTypeLCEv @ 661 NONAME
	_ZNK12CCntPackager22UnpackCntItemViewDefLCEv @ 662 NONAME
	_ZNK12CViewContact10IsSortableEv @ 663 NONAME
	_ZNK12CViewContact11ContactHintEv @ 664 NONAME
	_ZNK12CViewContact14ContactTypeUidEv @ 665 NONAME
	_ZNK16CContactDatabase20SetOperationTimeOutLEi @ 666 NONAME
	_ZNK16CContactDatabase9TSortPref12ExternalizeLER12RWriteStream @ 667 NONAME
	_ZNK17CContactItemField12GetFieldTextER6TDes16 @ 668 NONAME
	_ZNK17CContactItemField15HasCustomFilterER18EContactFieldFlags @ 669 NONAME
	_ZN17TContactViewStore16GetDefaultViewsLER13RPointerArrayI29CContactDefaultViewDefinitionE @ 670 NONAME
	_ZN17TContactViewStore16SetDefaultViewsLERK13RPointerArrayI29CContactDefaultViewDefinitionE @ 671 NONAME
	_ZN24TContactViewStorePrivate30GetDefinitionsOfExistingViewsLERK7TDesC16R13RPointerArrayI29CContactDefaultViewDefinitionE @ 672 NONAME
	_ZN29CContactDefaultViewDefinition12InternalizeLER11RReadStream @ 673 NONAME
	_ZN29CContactDefaultViewDefinition5NewLCENS_9TViewTypeERK7TDesC16RK21RContactViewSortOrder23TContactViewPreferencesRK6TDesC8 @ 674 NONAME
	_ZN29CContactDefaultViewDefinition5NewLCER11RReadStream @ 675 NONAME
	_ZN29CContactDefaultViewDefinitionD0Ev @ 676 NONAME
	_ZN29CContactDefaultViewDefinitionD1Ev @ 677 NONAME
	_ZN29CContactDefaultViewDefinitionD2Ev @ 678 NONAME
	_ZNK29CContactDefaultViewDefinition12ExternalizeLER12RWriteStream @ 679 NONAME
	_ZNK29CContactDefaultViewDefinition15SortPluginNameLEv @ 680 NONAME
	_ZNK29CContactDefaultViewDefinition15ViewPreferencesEv @ 681 NONAME
	_ZNK29CContactDefaultViewDefinition8ViewTypeEv @ 682 NONAME
	_ZNK29CContactDefaultViewDefinition9SortOrderEv @ 683 NONAME
	_ZNK29CContactDefaultViewDefinition9ViewNameLEv @ 684 NONAME
	_ZNK12CContentType7IsEqualERKS_ @ 685 NONAME
	_ZN16CContactDatabase23ExportSelectedContactsLERK4TUidRK15CContactIdArrayR12RWriteStreamixP18MConverterCallBack13TVCardVersioniN6Versit14TVersitCharSetEi @ 686 NONAME
	_ZN12CContactItem13SetAttributesEm @ 687 NONAME ABSENT
	_ZN12CContactItem14SetAccessCountEm @ 688 NONAME ABSENT
	_ZN12CContactItem15SetCreationDateERK5TTime @ 689 NONAME ABSENT
	_ZN12CContactItem5SetIdEl @ 690 NONAME ABSENT
	_ZN12CViewContact25ChangeToLightweightObjectEv @ 691 NONAME ABSENT
	_ZNK12CContactItem10AttributesEv @ 692 NONAME ABSENT
	_ZN13CContactGroup10ResetItemsEv @ 693 NONAME ABSENT
	_ZN13CContactGroup8SetItemsEP15CContactIdArray @ 694 NONAME ABSENT
	_ZN21CContactItemPlusGroup11ResetGroupsEv @ 695 NONAME ABSENT
	_ZN21CContactItemPlusGroup9SetGroupsEP15CContactIdArray @ 696 NONAME ABSENT

