EXPORTS
	_ZN19CContactSyncChecker13PhonebookUidLEl @ 1 NONAME
	_ZN19CContactSyncChecker13PluginLoadedLEv @ 2 NONAME
	_ZN19CContactSyncChecker14ICCTemplateIdLE4TUid @ 3 NONAME
	_ZN19CContactSyncChecker14PhonebookListLER6RArrayI4TUidE @ 4 NONAME
	_ZN19CContactSyncChecker15IsSynchronisedLE4TUid @ 5 NONAME
	_ZN19CContactSyncChecker15PluginUnloadedLEv @ 6 NONAME
	_ZN19CContactSyncChecker16ResetEverythingLEv @ 7 NONAME
	_ZN19CContactSyncChecker16SetGsmPhonebookLEv @ 8 NONAME
	_ZN19CContactSyncChecker16SetSynchronisedLEi4TUid @ 9 NONAME
	_ZN19CContactSyncChecker17SetPhonebookListLE6RArrayI4TUidE @ 10 NONAME
	_ZN19CContactSyncChecker17SetUsimPhonebookLEv @ 11 NONAME
	_ZN19CContactSyncChecker17SyncMethodCalledLEv @ 12 NONAME
	_ZN19CContactSyncChecker17ValidateResponseLEN20MContactSynchroniser18TValidateOperationE @ 13 NONAME
	_ZN19CContactSyncChecker18PluginLoadedCountLEv @ 14 NONAME
	_ZN19CContactSyncChecker18SetPhonebookEntryLE4TUidii @ 15 NONAME
	_ZN19CContactSyncChecker20SetValidateResponseLEN20MContactSynchroniser18TValidateOperationEi @ 16 NONAME
	_ZN19CContactSyncChecker20SyncMethodCallCountLEv @ 17 NONAME
	_ZN19CContactSyncChecker21EnableVerboseLoggingLEv @ 18 NONAME
	_ZN19CContactSyncChecker21UpdatePhonebookEntryLE4TUidii @ 19 NONAME
	_ZN19CContactSyncChecker21ValidateMethodCalledLEv @ 20 NONAME
	_ZN19CContactSyncChecker22AddContactToPhonebookLE4TUidRK7TDesC16S3_ @ 21 NONAME
	_ZN19CContactSyncChecker22DeleteContactResponseLEv @ 22 NONAME
	_ZN19CContactSyncChecker22ResetMethodCallCountsLEv @ 23 NONAME
	_ZN19CContactSyncChecker22ResetSyncIccPhonebookLE4TUidi @ 24 NONAME
	_ZN19CContactSyncChecker22ValidateWriteResponseLEv @ 25 NONAME
	_ZN19CContactSyncChecker22VerboseLoggingEnabledLEv @ 26 NONAME
	_ZN19CContactSyncChecker23FetchNotificationErrorLE4TUid @ 27 NONAME
	_ZN19CContactSyncChecker23UpdatePhonebookGroupIdLE4TUidi @ 28 NONAME
	_ZN19CContactSyncChecker24SynchroniseIccPhonebookLER16CContactDatabase4TUidii @ 29 NONAME
	_ZN19CContactSyncChecker24ValidateMethodCallCountLEv @ 30 NONAME
	_ZN19CContactSyncChecker25NotificationPendingCountLE4TUid @ 31 NONAME
	_ZN19CContactSyncChecker25SetDeleteContactResponseLEi @ 32 NONAME
	_ZN19CContactSyncChecker25SetSynchronisedLeaveCodeLEi4TUid @ 33 NONAME
	_ZN19CContactSyncChecker25SetValidateWriteResponseLEi @ 34 NONAME
	_ZN19CContactSyncChecker25StoreNotificationRequestLER14TRequestStatus4TUid @ 35 NONAME
	_ZN19CContactSyncChecker26ResetSyncIccAllPhonebooksLEi @ 36 NONAME
	_ZN19CContactSyncChecker26UpdatePhonebookTemplateIdLE4TUidi @ 37 NONAME
	_ZN19CContactSyncChecker28CompleteNotificationRequestLEi4TUid @ 38 NONAME
	_ZN19CContactSyncChecker28SynchroniseIccAllPhonebooksLER16CContactDatabaseii @ 39 NONAME
	_ZN19CContactSyncChecker30TotalNotificationPendingCountLEv @ 40 NONAME
	_ZN19CContactSyncChecker4NewLEv @ 41 NONAME
	_ZN19CContactSyncChecker6ResetLEv @ 42 NONAME
	_ZN19CContactSyncChecker8GroupIdLE4TUid @ 43 NONAME
	_ZN19CContactSyncCheckerD0Ev @ 44 NONAME
	_ZN19CContactSyncCheckerD1Ev @ 45 NONAME
	_ZN19CContactSyncCheckerD2Ev @ 46 NONAME
	_ZTI16CContactSyncData @ 47 NONAME
	_ZTI17CPhonebookContact @ 48 NONAME
	_ZTI19CContactSyncChecker @ 49 NONAME
	_ZTV16CContactSyncData @ 50 NONAME
	_ZTV17CPhonebookContact @ 51 NONAME
	_ZTV19CContactSyncChecker @ 52 NONAME

