EXPORTS
	??0TContactIter@@QAE@AAVCContactDatabase@@@Z @ 1 NONAME ; public: __thiscall TContactIter::TContactIter(class CContactDatabase &)
	??0TContactTextDefItem@@QAE@VTUid@@@Z @ 2 NONAME ; public: __thiscall TContactTextDefItem::TContactTextDefItem(class TUid)
	??0TContactTextDefItem@@QAE@VTUid@@ABVTDesC16@@@Z @ 3 NONAME ; public: __thiscall TContactTextDefItem::TContactTextDefItem(class TUid,class TDesC16 const &)
	??0TContactTextDefItem@@QAE@XZ @ 4 NONAME ; public: __thiscall TContactTextDefItem::TContactTextDefItem(void)
	??1CCntFilter@@UAE@XZ @ 5 NONAME ; public: virtual __thiscall CCntFilter::~CCntFilter(void)
	??1CContactCard@@UAE@XZ @ 6 NONAME ; public: virtual __thiscall CContactCard::~CContactCard(void)
	??1CContactChangeNotifier@@UAE@XZ @ 7 NONAME ; public: virtual __thiscall CContactChangeNotifier::~CContactChangeNotifier(void)
	??1CContactDatabase@@UAE@XZ @ 8 NONAME ; public: virtual __thiscall CContactDatabase::~CContactDatabase(void)
	??1CContactGroup@@UAE@XZ @ 9 NONAME ; public: virtual __thiscall CContactGroup::~CContactGroup(void)
	??1CContactIdArray@@UAE@XZ @ 10 NONAME ; public: virtual __thiscall CContactIdArray::~CContactIdArray(void)
	??1CContactItem@@UAE@XZ @ 11 NONAME ; public: virtual __thiscall CContactItem::~CContactItem(void)
	??1CContactItemField@@UAE@XZ @ 12 NONAME ; public: virtual __thiscall CContactItemField::~CContactItemField(void)
	??1CContactItemFieldSet@@UAE@XZ @ 13 NONAME ; public: virtual __thiscall CContactItemFieldSet::~CContactItemFieldSet(void)
	??1CContactOwnCard@@UAE@XZ @ 14 NONAME ; public: virtual __thiscall CContactOwnCard::~CContactOwnCard(void)
	??1CContactTextField@@UAE@XZ @ 15 NONAME ; public: virtual __thiscall CContactTextField::~CContactTextField(void)
	??1CContactViewDef@@UAE@XZ @ 16 NONAME ; public: virtual __thiscall CContactViewDef::~CContactViewDef(void)
	??1CContentType@@UAE@XZ @ 17 NONAME ; public: virtual __thiscall CContentType::~CContentType(void)
	??8CContentType@@QBEHABV0@@Z @ 18 NONAME ; public: int __thiscall CContentType::operator==(class CContentType const &)const 
	?AddContactToGroupL@CContactDatabase@@QAEXAAVCContactItem@@0@Z @ 19 NONAME ; public: void __thiscall CContactDatabase::AddContactToGroupL(class CContactItem &,class CContactItem &)
	?AddContactToGroupL@CContactDatabase@@QAEXJJ@Z @ 20 NONAME ; public: void __thiscall CContactDatabase::AddContactToGroupL(long,long)
	?AddFieldL@CContactItem@@QAEXAAVCContactItemField@@@Z @ 21 NONAME ; public: void __thiscall CContactItem::AddFieldL(class CContactItemField &)
	?AddFieldTypeL@CContactItemField@@QAEXVTUid@@@Z @ 22 NONAME ; public: void __thiscall CContactItemField::AddFieldTypeL(class TUid)
	?AddFieldTypeL@CContentType@@QAEXVTUid@@@Z @ 23 NONAME ; public: void __thiscall CContentType::AddFieldTypeL(class TUid)
	?AddL@CContactIdArray@@QAEXJ@Z @ 24 NONAME ; public: void __thiscall CContactIdArray::AddL(long)
	?AddL@CContactItemFieldSet@@QAEAAV1@AAVCContactItemField@@@Z @ 25 NONAME ; public: class CContactItemFieldSet & __thiscall CContactItemFieldSet::AddL(class CContactItemField &)
	?AddL@CContactItemViewDef@@QAEXVTUid@@@Z @ 26 NONAME ; public: void __thiscall CContactItemViewDef::AddL(class TUid)
	?AddNewContactL@CContactDatabase@@QAEJAAVCContactItem@@@Z @ 27 NONAME ; public: long __thiscall CContactDatabase::AddNewContactL(class CContactItem &)
	?AgentStorage@CContactItemField@@QBEPAVCContactAgentField@@XZ @ 28 NONAME ; public: class CContactAgentField * __thiscall CContactItemField::AgentStorage(void)const 
	?AllFieldsView@CContactDatabase@@QAEPAVCContactItemViewDef@@XZ @ 29 NONAME ; public: class CContactItemViewDef * __thiscall CContactDatabase::AllFieldsView(void)
	?BlobSizeL@CContactDatabase@@QAEHJ@Z @ 30 NONAME ABSENT ; public: int __thiscall CContactDatabase::BlobSizeL(long)
	?MatchPhoneNumberL@CContactDatabase@@QAEPAVCContactIdArray@@ABVTDesC16@@H@Z @ 31 NONAME ; public: class CContactIdArray * __thiscall CContactDatabase::MatchPhoneNumberL(class TDesC16 const &,int)
	?CardFields@CContactItem@@QBEAAVCContactItemFieldSet@@XZ @ 32 NONAME ; public: class CContactItemFieldSet & __thiscall CContactItem::CardFields(void)const 
	?CloseContactL@CContactDatabase@@QAEXJ@Z @ 33 NONAME ; public: void __thiscall CContactDatabase::CloseContactL(long)
	?CloseTables@CContactDatabase@@QAEXXZ @ 34 NONAME ; public: void __thiscall CContactDatabase::CloseTables(void)
	?CntServerResourceCount@CContactDatabase@@QAEHXZ @ 35 NONAME ; public: int __thiscall CContactDatabase::CntServerResourceCount(void)
	?CommitContactL@CContactDatabase@@QAEXABVCContactItem@@@Z @ 36 NONAME ; public: void __thiscall CContactDatabase::CommitContactL(class CContactItem const &)
	?CompactL@CContactDatabase@@QAEXXZ @ 37 NONAME ; public: void __thiscall CContactDatabase::CompactL(void)
	?CompressL@CContactDatabase@@QAEXXZ @ 38 NONAME ABSENT ; public: void __thiscall CContactDatabase::CompressL(void)
	?CompressRequired@CContactDatabase@@QAEHXZ @ 39 NONAME ; public: int __thiscall CContactDatabase::CompressRequired(void)
	?ConnectionId@CContactDatabase@@QBEIXZ @ 40 NONAME ; public: unsigned int __thiscall CContactDatabase::ConnectionId(void)const 
	?ContactIdByGuidL@CContactDatabase@@QAEJABVTDesC16@@@Z @ 41 NONAME ; public: long __thiscall CContactDatabase::ContactIdByGuidL(class TDesC16 const &)
	?ContactsChangedSinceL@CContactDatabase@@QAEPAVCContactIdArray@@ABVTTime@@@Z @ 42 NONAME ; public: class CContactIdArray * __thiscall CContactDatabase::ContactsChangedSinceL(class TTime const &)
	?Contains@CContactItemViewDef@@QAEHABVCContactItem@@@Z @ 43 NONAME ; public: int __thiscall CContactItemViewDef::Contains(class CContactItem const &)
	?ContainsFieldType@CContentType@@QBEHVTUid@@@Z @ 44 NONAME ; public: int __thiscall CContentType::ContainsFieldType(class TUid)const 
	?ContainsItem@CContactGroup@@QAEHJ@Z @ 45 NONAME ; public: int __thiscall CContactGroup::ContainsItem(long)
	?ContentType@CContactItemField@@QBEABVCContentType@@XZ @ 46 NONAME ; public: class CContentType const & __thiscall CContactItemField::ContentType(void)const 
	?CountL@CContactDatabase@@QAEHXZ @ 47 NONAME ; public: int __thiscall CContactDatabase::CountL(void)
	?CreateCompressorLC@CContactDatabase@@QAEPAVCContactActiveCompress@@XZ @ 48 NONAME ; public: class CContactActiveCompress * __thiscall CContactDatabase::CreateCompressorLC(void)
	?CreateContactCardTemplateL@CContactDatabase@@QAEPAVCContactItem@@ABVTDesC16@@H@Z @ 49 NONAME ; public: class CContactItem * __thiscall CContactDatabase::CreateContactCardTemplateL(class TDesC16 const &,int)
	?CreateContactCardTemplateL@CContactDatabase@@QAEPAVCContactItem@@PBV2@ABVTDesC16@@H@Z @ 50 NONAME ; public: class CContactItem * __thiscall CContactDatabase::CreateContactCardTemplateL(class CContactItem const *,class TDesC16 const &,int)
	?CreateContactCardTemplateLC@CContactDatabase@@QAEPAVCContactItem@@ABVTDesC16@@H@Z @ 51 NONAME ; public: class CContactItem * __thiscall CContactDatabase::CreateContactCardTemplateLC(class TDesC16 const &,int)
	?CreateContactCardTemplateLC@CContactDatabase@@QAEPAVCContactItem@@PBV2@ABVTDesC16@@H@Z @ 52 NONAME ; public: class CContactItem * __thiscall CContactDatabase::CreateContactCardTemplateLC(class CContactItem const *,class TDesC16 const &,int)
	?CreateContactGroupL@CContactDatabase@@QAEPAVCContactItem@@ABVTDesC16@@H@Z @ 53 NONAME ; public: class CContactItem * __thiscall CContactDatabase::CreateContactGroupL(class TDesC16 const &,int)
	?CreateContactGroupL@CContactDatabase@@QAEPAVCContactItem@@H@Z @ 54 NONAME ; public: class CContactItem * __thiscall CContactDatabase::CreateContactGroupL(int)
	?CreateContactGroupLC@CContactDatabase@@QAEPAVCContactItem@@ABVTDesC16@@H@Z @ 55 NONAME ; public: class CContactItem * __thiscall CContactDatabase::CreateContactGroupLC(class TDesC16 const &,int)
	?CreateContactGroupLC@CContactDatabase@@QAEPAVCContactItem@@H@Z @ 56 NONAME ; public: class CContactItem * __thiscall CContactDatabase::CreateContactGroupLC(int)
	?CreateL@CContactDatabase@@SAPAV1@ABVTDesC16@@W4TThreadAccess@1@@Z @ 57 NONAME ; public: static class CContactDatabase * __cdecl CContactDatabase::CreateL(class TDesC16 const &,enum CContactDatabase::TThreadAccess)
	?CreateL@CContactDatabase@@SAPAV1@W4TThreadAccess@1@@Z @ 58 NONAME ; public: static class CContactDatabase * __cdecl CContactDatabase::CreateL(enum CContactDatabase::TThreadAccess)
	?CreateOwnCardL@CContactDatabase@@QAEPAVCContactItem@@XZ @ 59 NONAME ; public: class CContactItem * __thiscall CContactDatabase::CreateOwnCardL(void)
	?CreateOwnCardLC@CContactDatabase@@QAEPAVCContactItem@@XZ @ 60 NONAME ; public: class CContactItem * __thiscall CContactDatabase::CreateOwnCardLC(void)
	?CreatePrefL@CContactDatabase@@QAEJXZ @ 61 NONAME ABSENT ; public: long __thiscall CContactDatabase::CreatePrefL(void)
	?CreateRecoverLC@CContactDatabase@@QAEPAVCContactActiveRecover@@XZ @ 62 NONAME ; public: class CContactActiveRecover * __thiscall CContactDatabase::CreateRecoverLC(void)
	?DamageDatabaseL@CContactDatabase@@QAEXH@Z @ 63 NONAME ; public: void __thiscall CContactDatabase::DamageDatabaseL(int)
	?DatabaseBeginLC@CContactDatabase@@QAEXH@Z @ 64 NONAME ; public: void __thiscall CContactDatabase::DatabaseBeginLC(int)
	?DatabaseCommitLP@CContactDatabase@@QAEXH@Z @ 65 NONAME ; public: void __thiscall CContactDatabase::DatabaseCommitLP(int)
	?DatabaseDrive@CContactDatabase@@SAHAAVTDriveUnit@@@Z @ 66 NONAME ; public: static int __cdecl CContactDatabase::DatabaseDrive(class TDriveUnit &)
	?DateTimeStorage@CContactItemField@@QBEPAVCContactDateField@@XZ @ 67 NONAME ; public: class CContactDateField * __thiscall CContactItemField::DateTimeStorage(void)const 
	?DeleteContactL@CContactDatabase@@QAEXJ@Z @ 68 NONAME ; public: void __thiscall CContactDatabase::DeleteContactL(long)
	?DeleteContactsL@CContactDatabase@@QAEXABVCContactIdArray@@@Z @ 69 NONAME ; public: void __thiscall CContactDatabase::DeleteContactsL(class CContactIdArray const &)
	?DeleteDefaultFileL@CContactDatabase@@SAXXZ @ 70 NONAME ; public: static void __cdecl CContactDatabase::DeleteDefaultFileL(void)
	?DeletedContactsLC@CContactDatabase@@QAEPAVCContactIdArray@@XZ @ 71 NONAME ; public: class CContactIdArray * __thiscall CContactDatabase::DeletedContactsLC(void)
	?Error@CIdleFinder@@QBEHXZ @ 72 NONAME ; public: int __thiscall CIdleFinder::Error(void)const 
	?ExportSelectedContactsL@CContactDatabase@@QAEXABVTUid@@ABVCContactIdArray@@AAVRWriteStream@@HH@Z @ 73 NONAME ; public: void __thiscall CContactDatabase::ExportSelectedContactsL(class TUid const &,class CContactIdArray const &,class RWriteStream &,int,int)
	?ExportSelectedContactsL@CContactDatabase@@QAEXABVTUid@@ABVCContactIdArray@@AAVRWriteStream@@HW4TVersitCharSet@Versit@@H@Z @ 74 NONAME ; public: void __thiscall CContactDatabase::ExportSelectedContactsL(class TUid const &,class CContactIdArray const &,class RWriteStream &,int,enum Versit::TVersitCharSet,int)
	?ExternalizeL@CContactIdArray@@QBEXAAVRWriteStream@@@Z @ 75 NONAME ; public: void __thiscall CContactIdArray::ExternalizeL(class RWriteStream &)const 
	?ExternalizeL@CContactItemViewDef@@QBEXAAVRWriteStream@@@Z @ 76 NONAME ; public: void __thiscall CContactItemViewDef::ExternalizeL(class RWriteStream &)const 
	?ExternalizeL@CContactViewDef@@QBEXAAVRWriteStream@@@Z @ 77 NONAME ; public: void __thiscall CContactViewDef::ExternalizeL(class RWriteStream &)const 
	?FallbackField@CContactTextDef@@QBE?AVTUid@@XZ @ 78 NONAME ; public: class TUid  __thiscall CContactTextDef::FallbackField(void)const 
	?FieldType@CContentType@@QBE?AVTUid@@H@Z @ 79 NONAME ; public: class TUid  __thiscall CContentType::FieldType(int)const 
	?FieldTypeCount@CContentType@@QBEHXZ @ 80 NONAME ; public: int __thiscall CContentType::FieldTypeCount(void)const 
	?FileSize@CContactDatabase@@QBEHXZ @ 81 NONAME ; public: int __thiscall CContactDatabase::FileSize(void)const 
	?FileUid@CContactDatabase@@QAE?AVTPtrC16@@XZ @ 82 NONAME ; public: class TPtrC16  __thiscall CContactDatabase::FileUid(void)
	?FilterDatabaseL@CContactDatabase@@QAEXAAVCCntFilter@@@Z @ 83 NONAME ; public: void __thiscall CContactDatabase::FilterDatabaseL(class CCntFilter &)
	?Find@CContactIdArray@@QBEHJ@Z @ 84 NONAME ; public: int __thiscall CContactIdArray::Find(long)const 
	?Find@CContactItemViewDef@@QBEHABVCContentType@@@Z @ 85 NONAME ; public: int __thiscall CContactItemViewDef::Find(class CContentType const &)const 
	?Find@CContactItemViewDef@@QBEHVTUid@@@Z @ 86 NONAME ; public: int __thiscall CContactItemViewDef::Find(class TUid)const 
	?FindAsyncL@CContactDatabase@@QAEPAVCIdleFinder@@ABVTDesC16@@PBVCContactItemFieldDef@@PAVMIdleFindObserver@@@Z @ 87 NONAME ; public: class CIdleFinder * __thiscall CContactDatabase::FindAsyncL(class TDesC16 const &,class CContactItemFieldDef const *,class MIdleFindObserver *)
	?FindContactFile@CContactDatabase@@SAHAAVTDes16@@@Z @ 88 NONAME ABSENT ; public: static int __cdecl CContactDatabase::FindContactFile(class TDes16 &)
	?FindInTextDefAsyncL@CContactDatabase@@QAEPAVCIdleFinder@@ABVMDesC16Array@@PAVMIdleFindObserver@@ABVTCallBack@@@Z @ 89 NONAME ; public: class CIdleFinder * __thiscall CContactDatabase::FindInTextDefAsyncL(class MDesC16Array const &,class MIdleFindObserver *,class TCallBack const &)
	?FindInTextDefAsyncL@CContactDatabase@@QAEPAVCIdleFinder@@ABVMDesC16Array@@PBVCContactTextDef@@PAVMIdleFindObserver@@ABVTCallBack@@@Z @ 90 NONAME ; public: class CIdleFinder * __thiscall CContactDatabase::FindInTextDefAsyncL(class MDesC16Array const &,class CContactTextDef const *,class MIdleFindObserver *,class TCallBack const &)
	?FindInTextDefLC@CContactDatabase@@QAEPAVCContactIdArray@@ABVMDesC16Array@@ABVTCallBack@@@Z @ 91 NONAME ; public: class CContactIdArray * __thiscall CContactDatabase::FindInTextDefLC(class MDesC16Array const &,class TCallBack const &)
	?FindInTextDefLC@CContactDatabase@@QAEPAVCContactIdArray@@ABVMDesC16Array@@PAVCContactTextDef@@ABVTCallBack@@@Z @ 92 NONAME ; public: class CContactIdArray * __thiscall CContactDatabase::FindInTextDefLC(class MDesC16Array const &,class CContactTextDef *,class TCallBack const &)
	?FindLC@CContactDatabase@@QAEPAVCContactIdArray@@ABVTDesC16@@PBVCContactItemFieldDef@@@Z @ 93 NONAME ; public: class CContactIdArray * __thiscall CContactDatabase::FindLC(class TDesC16 const &,class CContactItemFieldDef const *)
	?FindNext@CContactItemFieldSet@@QBEHVTUid@@0H@Z @ 94 NONAME ; public: int __thiscall CContactItemFieldSet::FindNext(class TUid,class TUid,int)const 
	?FindNext@CContactItemFieldSet@@QBEHVTUid@@H@Z @ 95 NONAME ; public: int __thiscall CContactItemFieldSet::FindNext(class TUid,int)const 
	?FirstL@TContactIter@@QAEJXZ @ 96 NONAME ; public: long __thiscall TContactIter::FirstL(void)
	?GetCardTemplateIdListL@CContactDatabase@@QBEPAVCContactIdArray@@XZ @ 97 NONAME ; public: class CContactIdArray * __thiscall CContactDatabase::GetCardTemplateIdListL(void)const 
	?GetCurrentItem@CContactDatabase@@QBEJXZ @ 98 NONAME ; long CContactDatabase::GetCurrentItem(void) const
	?GetDbViewContactType@CContactDatabase@@QBE?AVTUid@@XZ @ 99 NONAME ; public: class TUid  __thiscall CContactDatabase::GetDbViewContactType(void)const 
	?GetDefaultNameL@CContactDatabase@@SAXAAVTDes16@@@Z @ 100 NONAME ; public: static void __cdecl CContactDatabase::GetDefaultNameL(class TDes16 &)
	?GetGroupIdListL@CContactDatabase@@QBEPAVCContactIdArray@@XZ @ 101 NONAME ; public: class CContactIdArray * __thiscall CContactDatabase::GetGroupIdListL(void)const 
	?GetGroupLabelL@CContactGroup@@QAE?AVTPtrC16@@XZ @ 102 NONAME ; public: class TPtrC16  __thiscall CContactGroup::GetGroupLabelL(void)
	?GetLastSyncDateL@CContactDatabase@@QAEXJAAVTTime@@@Z @ 103 NONAME ; public: void __thiscall CContactDatabase::GetLastSyncDateL(long,class TTime &)
	?GetSpeedDialFieldL@CContactDatabase@@QAEJHAAVTDes16@@@Z @ 104 NONAME ; public: long __thiscall CContactDatabase::GetSpeedDialFieldL(int,class TDes16 &)
	?GetTemplateLabelL@CContactCardTemplate@@QAE?AVTPtrC16@@XZ @ 105 NONAME ; public: class TPtrC16  __thiscall CContactCardTemplate::GetTemplateLabelL(void)
	?GotoL@TContactIter@@QAEXJ@Z @ 106 NONAME ; public: void __thiscall TContactIter::GotoL(long)
	?Groups@CContactViewDef@@QBEAAVCContactIdArray@@XZ @ 107 NONAME ; public: class CContactIdArray & __thiscall CContactViewDef::Groups(void)const 
	?GroupsJoinedLC@CContactCard@@QBEPAVCContactIdArray@@XZ @ 108 NONAME ; public: class CContactIdArray * __thiscall CContactCard::GroupsJoinedLC(void)const 
	?GroupsJoinedLC@CContactGroup@@QBEPAVCContactIdArray@@XZ @ 109 NONAME ; public: class CContactIdArray * __thiscall CContactGroup::GroupsJoinedLC(void)const 
	?GroupsJoinedLC@CContactOwnCard@@QBEPAVCContactIdArray@@XZ @ 110 NONAME ; public: class CContactIdArray * __thiscall CContactOwnCard::GroupsJoinedLC(void)const 
	?HandleDatabaseEventL@CContactDatabase@@UAEXABUTContactDbObserverEvent@@@Z @ 111 NONAME ; public: virtual void __thiscall CContactDatabase::HandleDatabaseEventL(struct TContactDbObserverEvent const &)
	?HasItemLabelField@CContactCardTemplate@@IAEHXZ @ 112 NONAME ; protected: int __thiscall CContactCardTemplate::HasItemLabelField(void)
	?HasItemLabelField@CContactGroup@@QAEHXZ @ 113 NONAME ; public: int __thiscall CContactGroup::HasItemLabelField(void)
	?Id@CContactItem@@QBEJXZ @ 114 NONAME ; public: long __thiscall CContactItem::Id(void)const 
	?Id@CContactItemField@@QBEHXZ @ 115 NONAME ; public: int __thiscall CContactItemField::Id(void)const 
	?ImportContactsL@CContactDatabase@@QAEPAV?$CArrayPtr@VCContactItem@@@@ABVTUid@@AAVRReadStream@@AAHH@Z @ 116 NONAME ; public: class CArrayPtr<class CContactItem> * __thiscall CContactDatabase::ImportContactsL(class TUid const &,class RReadStream &,int &,int)
	?InitLoadPhoneMatchesL@CContactDatabase@@QAEHXZ @ 117 NONAME ABSENT ; public: int __thiscall CContactDatabase::InitLoadPhoneMatchesL(void)
	?InsertFieldL@CContactItem@@QAEXAAVCContactItemField@@H@Z @ 118 NONAME ; public: void __thiscall CContactItem::InsertFieldL(class CContactItemField &,int)
	?InsertL@CContactItemFieldSet@@QAEXHAAVCContactItemField@@@Z @ 119 NONAME ; public: void __thiscall CContactItemFieldSet::InsertL(int,class CContactItemField &)
	?InternalizeL@CContactIdArray@@QAEXAAVRReadStream@@@Z @ 120 NONAME ; public: void __thiscall CContactIdArray::InternalizeL(class RReadStream &)
	?InternalizeL@CContactItemViewDef@@QAEXAAVRReadStream@@@Z @ 121 NONAME ; public: void __thiscall CContactItemViewDef::InternalizeL(class RReadStream &)
	?InternalizeL@CContactViewDef@@QAEXAAVRReadStream@@@Z @ 122 NONAME ; public: void __thiscall CContactViewDef::InternalizeL(class RReadStream &)
	?IsComplete@CIdleFinder@@QBEHXZ @ 123 NONAME ; public: int __thiscall CIdleFinder::IsComplete(void)const 
	?IsDamaged@CContactDatabase@@QBEHXZ @ 124 NONAME ; public: int __thiscall CContactDatabase::IsDamaged(void)const 
	?IsDeleted@CContactItem@@QBEHXZ @ 125 NONAME ; public: int __thiscall CContactItem::IsDeleted(void)const 
	?IsHidden@CContactItem@@QAEHXZ @ 126 NONAME ; public: int __thiscall CContactItem::IsHidden(void)
	?IsLocalContactUidString@ContactGuid@@SAJABVTDesC16@@_J@Z @ 127 NONAME ; public: static long __cdecl ContactGuid::IsLocalContactUidString(class TDesC16 const &,long long)
	?IsSystem@CContactGroup@@QBEHXZ @ 128 NONAME ; public: int __thiscall CContactGroup::IsSystem(void)const 
	?IsSystem@CContactItem@@QAEHXZ @ 129 NONAME ; public: int __thiscall CContactItem::IsSystem(void)
	?IsTemplateLabelField@CContactItemField@@QBEHXZ @ 130 NONAME ; public: int __thiscall CContactItemField::IsTemplateLabelField(void)const 
	?IsValidLabel@CContactItemField@@SAHABVTDesC16@@AAH@Z @ 131 NONAME ; public: static int __cdecl CContactItemField::IsValidLabel(class TDesC16 const &,int &)
	?ItemDef@CContactViewDef@@QBEAAVCContactItemViewDef@@XZ @ 132 NONAME ; public: class CContactItemViewDef & __thiscall CContactViewDef::ItemDef(void)const 
	?ItemsContained@CContactGroup@@QBEPBVCContactIdArray@@XZ @ 133 NONAME ; public: class CContactIdArray const * __thiscall CContactGroup::ItemsContained(void)const 
	?ItemsContainedLC@CContactGroup@@QBEPAVCContactIdArray@@XZ @ 134 NONAME ; public: class CContactIdArray * __thiscall CContactGroup::ItemsContainedLC(void)const 
	?Label@CContactItemField@@QBE?AVTPtrC16@@XZ @ 135 NONAME ; public: class TPtrC16  __thiscall CContactItemField::Label(void)const 
	?LastL@TContactIter@@QAEJXZ @ 136 NONAME ; public: long __thiscall TContactIter::LastL(void)
	?LastModified@CContactItem@@QBE?AVTTime@@XZ @ 137 NONAME ; public: class TTime  __thiscall CContactItem::LastModified(void)const 
	?LoadPhoneMatchesL@CContactDatabase@@QAEHXZ @ 138 NONAME ABSENT ; public: int __thiscall CContactDatabase::LoadPhoneMatchesL(void)
	?LockServerConnectL@CContactDatabase@@SAPAV1@ABVTDesC16@@@Z @ 139 NONAME
	?MachineId@CContactDatabase@@QBE_JXZ @ 140 NONAME ; public: long long  __thiscall CContactDatabase::MachineId(void)const 
	?Mapping@CContentType@@QBE?AVTUid@@XZ @ 141 NONAME ; public: class TUid  __thiscall CContentType::Mapping(void)const 
	?MatchPhoneNumberL@CContactDatabase@@QAEPAVCContactIdArray@@H@Z @ 142 NONAME ABSENT ; public: class CContactIdArray * __thiscall CContactDatabase::MatchPhoneNumberL(int)
	?MatchesAll@CContactItemViewDef@@QBEHXZ @ 143 NONAME ; public: int __thiscall CContactItemViewDef::MatchesAll(void)const 
	?Move@CContactItemFieldSet@@QAEXHH@Z @ 144 NONAME ; public: void __thiscall CContactItemFieldSet::Move(int,int)
	?MoveL@CContactIdArray@@QAEXHH@Z @ 145 NONAME ; public: void __thiscall CContactIdArray::MoveL(int,int)
	?NewL@CCntFilter@@SAPAV1@PBV1@@Z @ 146 NONAME ; public: static class CCntFilter * __cdecl CCntFilter::NewL(class CCntFilter const *)
	?NewL@CCntFilter@@SAPAV1@XZ @ 147 NONAME ; public: static class CCntFilter * __cdecl CCntFilter::NewL(void)
	?NewL@CContactCard@@SAPAV1@PBVCContactItem@@@Z @ 148 NONAME ; public: static class CContactCard * __cdecl CContactCard::NewL(class CContactItem const *)
	?NewL@CContactCard@@SAPAV1@XZ @ 149 NONAME ; public: static class CContactCard * __cdecl CContactCard::NewL(void)
	?NewL@CContactCardTemplate@@KAPAV1@PBVCContactItem@@@Z @ 150 NONAME ; protected: static class CContactCardTemplate * __cdecl CContactCardTemplate::NewL(class CContactItem const *)
	?NewL@CContactCardTemplate@@KAPAV1@XZ @ 151 NONAME ; protected: static class CContactCardTemplate * __cdecl CContactCardTemplate::NewL(void)
	?NewL@CContactChangeNotifier@@SAPAV1@AAVCContactDatabase@@PAVMContactDbObserver@@@Z @ 152 NONAME ; public: static class CContactChangeNotifier * __cdecl CContactChangeNotifier::NewL(class CContactDatabase &,class MContactDbObserver *)
	?NewL@CContactGroup@@SAPAV1@XZ @ 153 NONAME ; public: static class CContactGroup * __cdecl CContactGroup::NewL(void)
	?NewL@CContactIdArray@@SAPAV1@PBV1@@Z @ 154 NONAME ; public: static class CContactIdArray * __cdecl CContactIdArray::NewL(class CContactIdArray const *)
	?NewL@CContactIdArray@@SAPAV1@XZ @ 155 NONAME ; public: static class CContactIdArray * __cdecl CContactIdArray::NewL(void)
	?NewL@CContactItemField@@SAPAV1@ABV1@@Z @ 156 NONAME ; public: static class CContactItemField * __cdecl CContactItemField::NewL(class CContactItemField const &)
	?NewL@CContactItemField@@SAPAV1@I@Z @ 157 NONAME ; public: static class CContactItemField * __cdecl CContactItemField::NewL(unsigned int)
	?NewL@CContactItemField@@SAPAV1@IABVCContentType@@@Z @ 158 NONAME ; public: static class CContactItemField * __cdecl CContactItemField::NewL(unsigned int,class CContentType const &)
	?NewL@CContactItemField@@SAPAV1@IVTUid@@@Z @ 159 NONAME ; public: static class CContactItemField * __cdecl CContactItemField::NewL(unsigned int,class TUid)
	?NewL@CContactItemFieldSet@@SAPAV1@XZ @ 160 NONAME ; public: static class CContactItemFieldSet * __cdecl CContactItemFieldSet::NewL(void)
	?NewL@CContactItemViewDef@@SAPAV1@W4TUse@1@W4TMode@1@@Z @ 161 NONAME ; public: static class CContactItemViewDef * __cdecl CContactItemViewDef::NewL(enum CContactItemViewDef::TUse,enum CContactItemViewDef::TMode)
	?NewL@CContactOwnCard@@SAPAV1@PBVCContactItem@@@Z @ 162 NONAME ; public: static class CContactOwnCard * __cdecl CContactOwnCard::NewL(class CContactItem const *)
	?NewL@CContactOwnCard@@SAPAV1@XZ @ 163 NONAME ; public: static class CContactOwnCard * __cdecl CContactOwnCard::NewL(void)
	?NewL@CContactTemplate@@SAPAV1@PBVCContactItem@@@Z @ 164 NONAME ; public: static class CContactTemplate * __cdecl CContactTemplate::NewL(class CContactItem const *)
	?NewL@CContactTemplate@@SAPAV1@XZ @ 165 NONAME ; public: static class CContactTemplate * __cdecl CContactTemplate::NewL(void)
	?NewL@CContactTextDef@@SAPAV1@XZ @ 166 NONAME ; public: static class CContactTextDef * __cdecl CContactTextDef::NewL(void)
	?NewL@CContactViewDef@@SAPAV1@PAVCContactItemViewDef@@@Z @ 167 NONAME ; public: static class CContactViewDef * __cdecl CContactViewDef::NewL(class CContactItemViewDef *)
	?NewL@CContactViewDef@@SAPAV1@XZ @ 168 NONAME ; public: static class CContactViewDef * __cdecl CContactViewDef::NewL(void)
	?NewL@CContentType@@SAPAV1@ABV1@@Z @ 169 NONAME ; public: static class CContentType * __cdecl CContentType::NewL(class CContentType const &)
	?NewL@CContentType@@SAPAV1@VTUid@@0@Z @ 170 NONAME ; public: static class CContentType * __cdecl CContentType::NewL(class TUid,class TUid)
	?NewL@CContentType@@SAPAV1@XZ @ 171 NONAME ; public: static class CContentType * __cdecl CContentType::NewL(void)
	?NewLC@CCntFilter@@SAPAV1@PBV1@@Z @ 172 NONAME ; public: static class CCntFilter * __cdecl CCntFilter::NewLC(class CCntFilter const *)
	?NewLC@CCntFilter@@SAPAV1@XZ @ 173 NONAME ; public: static class CCntFilter * __cdecl CCntFilter::NewLC(void)
	?NewLC@CContactCard@@SAPAV1@PBVCContactItem@@@Z @ 174 NONAME ; public: static class CContactCard * __cdecl CContactCard::NewLC(class CContactItem const *)
	?NewLC@CContactCard@@SAPAV1@XZ @ 175 NONAME ; public: static class CContactCard * __cdecl CContactCard::NewLC(void)
	?NewLC@CContactCardTemplate@@KAPAV1@PBVCContactItem@@@Z @ 176 NONAME ; protected: static class CContactCardTemplate * __cdecl CContactCardTemplate::NewLC(class CContactItem const *)
	?NewLC@CContactCardTemplate@@KAPAV1@XZ @ 177 NONAME ; protected: static class CContactCardTemplate * __cdecl CContactCardTemplate::NewLC(void)
	?NewLC@CContactGroup@@SAPAV1@XZ @ 178 NONAME ; public: static class CContactGroup * __cdecl CContactGroup::NewLC(void)
	?NewLC@CContactIdArray@@SAPAV1@PBV1@@Z @ 179 NONAME ; public: static class CContactIdArray * __cdecl CContactIdArray::NewLC(class CContactIdArray const *)
	?NewLC@CContactIdArray@@SAPAV1@XZ @ 180 NONAME ; public: static class CContactIdArray * __cdecl CContactIdArray::NewLC(void)
	?NewLC@CContactItemField@@SAPAV1@ABV1@@Z @ 181 NONAME ; public: static class CContactItemField * __cdecl CContactItemField::NewLC(class CContactItemField const &)
	?NewLC@CContactItemField@@SAPAV1@I@Z @ 182 NONAME ; public: static class CContactItemField * __cdecl CContactItemField::NewLC(unsigned int)
	?NewLC@CContactItemField@@SAPAV1@IABVCContentType@@@Z @ 183 NONAME ; public: static class CContactItemField * __cdecl CContactItemField::NewLC(unsigned int,class CContentType const &)
	?NewLC@CContactItemField@@SAPAV1@IVTUid@@@Z @ 184 NONAME ; public: static class CContactItemField * __cdecl CContactItemField::NewLC(unsigned int,class TUid)
	?NewLC@CContactItemField@@SAPAV1@XZ @ 185 NONAME ; public: static class CContactItemField * __cdecl CContactItemField::NewLC(void)
	?NewLC@CContactItemFieldSet@@SAPAV1@XZ @ 186 NONAME ; public: static class CContactItemFieldSet * __cdecl CContactItemFieldSet::NewLC(void)
	?NewLC@CContactItemViewDef@@SAPAV1@W4TUse@1@W4TMode@1@@Z @ 187 NONAME ; public: static class CContactItemViewDef * __cdecl CContactItemViewDef::NewLC(enum CContactItemViewDef::TUse,enum CContactItemViewDef::TMode)
	?NewLC@CContactOwnCard@@SAPAV1@PBVCContactItem@@@Z @ 188 NONAME ; public: static class CContactOwnCard * __cdecl CContactOwnCard::NewLC(class CContactItem const *)
	?NewLC@CContactOwnCard@@SAPAV1@XZ @ 189 NONAME ; public: static class CContactOwnCard * __cdecl CContactOwnCard::NewLC(void)
	?NewLC@CContactTemplate@@SAPAV1@PBVCContactItem@@@Z @ 190 NONAME ; public: static class CContactTemplate * __cdecl CContactTemplate::NewLC(class CContactItem const *)
	?NewLC@CContactTemplate@@SAPAV1@XZ @ 191 NONAME ; public: static class CContactTemplate * __cdecl CContactTemplate::NewLC(void)
	?NewLC@CContactTextDef@@SAPAV1@XZ @ 192 NONAME ; public: static class CContactTextDef * __cdecl CContactTextDef::NewLC(void)
	?NewLC@CContactViewDef@@SAPAV1@PAVCContactItemViewDef@@@Z @ 193 NONAME ; public: static class CContactViewDef * __cdecl CContactViewDef::NewLC(class CContactItemViewDef *)
	?NewLC@CContactViewDef@@SAPAV1@XZ @ 194 NONAME ; public: static class CContactViewDef * __cdecl CContactViewDef::NewLC(void)
	?NextL@TContactIter@@QAEJXZ @ 195 NONAME ; public: long __thiscall TContactIter::NextL(void)
	?NumberStorage@CContactItemField@@QBEPAVCContactNumberField@@XZ @ 196 NONAME ABSENT ; public: class CContactNumberField * __thiscall CContactItemField::NumberStorage(void)const 
	?OpenContactL@CContactDatabase@@QAEPAVCContactItem@@J@Z @ 197 NONAME ; public: class CContactItem * __thiscall CContactDatabase::OpenContactL(long)
	?OpenContactL@CContactDatabase@@QAEPAVCContactItem@@JABVCContactItemViewDef@@@Z @ 198 NONAME ; public: class CContactItem * __thiscall CContactDatabase::OpenContactL(long,class CContactItemViewDef const &)
	?OpenContactLX@CContactDatabase@@QAEPAVCContactItem@@J@Z @ 199 NONAME ; public: class CContactItem * __thiscall CContactDatabase::OpenContactLX(long)
	?OpenContactLX@CContactDatabase@@QAEPAVCContactItem@@JABVCContactItemViewDef@@@Z @ 200 NONAME ; public: class CContactItem * __thiscall CContactDatabase::OpenContactLX(long,class CContactItemViewDef const &)
	?OpenL@CContactDatabase@@SAPAV1@ABVTDesC16@@W4TThreadAccess@1@@Z @ 201 NONAME ; public: static class CContactDatabase * __cdecl CContactDatabase::OpenL(class TDesC16 const &,enum CContactDatabase::TThreadAccess)
	?OpenL@CContactDatabase@@SAPAV1@W4TThreadAccess@1@@Z @ 202 NONAME ; public: static class CContactDatabase * __cdecl CContactDatabase::OpenL(enum CContactDatabase::TThreadAccess)
	?OpenTablesL@CContactDatabase@@QAEXXZ @ 203 NONAME ; public: void __thiscall CContactDatabase::OpenTablesL(void)
	?OverrideMachineUniqueId@CContactDatabase@@QAEX_J@Z @ 204 NONAME ; public: void __thiscall CContactDatabase::OverrideMachineUniqueId(long long)
	?OwnCardId@CContactDatabase@@QBEJXZ @ 205 NONAME ; public: long __thiscall CContactDatabase::OwnCardId(void)const 
	?PhoneMatchListL@CContactDatabase@@QBEPAVCContactIdArray@@ABVTDesC16@@@Z @ 206 NONAME ABSENT ; public: class CContactIdArray * __thiscall CContactDatabase::PhoneMatchListL(class TDesC16 const &)const 
	?PrefTemplateId@CContactDatabase@@QBEJXZ @ 207 NONAME ; public: long __thiscall CContactDatabase::PrefTemplateId(void)const 
	?PreviousL@TContactIter@@QAEJXZ @ 208 NONAME ; public: long __thiscall TContactIter::PreviousL(void)
	?ReadContactAndAgentL@CContactDatabase@@QAEPAV?$CArrayPtr@VCContactItem@@@@J@Z @ 209 NONAME ; public: class CArrayPtr<class CContactItem> * __thiscall CContactDatabase::ReadContactAndAgentL(long)
	?ReadContactL@CContactDatabase@@QAEPAVCContactItem@@J@Z @ 210 NONAME ; public: class CContactItem * __thiscall CContactDatabase::ReadContactL(long)
	?ReadContactL@CContactDatabase@@QAEPAVCContactItem@@JABVCContactItemViewDef@@@Z @ 211 NONAME ; public: class CContactItem * __thiscall CContactDatabase::ReadContactL(long,class CContactItemViewDef const &)
	?ReadContactLC@CContactDatabase@@QAEPAVCContactItem@@J@Z @ 212 NONAME ; public: class CContactItem * __thiscall CContactDatabase::ReadContactLC(long)
	?ReadContactLC@CContactDatabase@@QAEPAVCContactItem@@JABVCContactItemViewDef@@@Z @ 213 NONAME ; public: class CContactItem * __thiscall CContactDatabase::ReadContactLC(long,class CContactItemViewDef const &)
	?ReadContactTextDefL@CContactDatabase@@QAEXABVCContactItem@@AAVTDes16@@@Z @ 214 NONAME ; public: void __thiscall CContactDatabase::ReadContactTextDefL(class CContactItem const &,class TDes16 &)
	?ReadContactTextDefL@CContactDatabase@@QAEXABVCContactItem@@AAVTDes16@@PAVCContactTextDef@@@Z @ 215 NONAME ; public: void __thiscall CContactDatabase::ReadContactTextDefL(class CContactItem const &,class TDes16 &,class CContactTextDef *)
	?ReadContactTextDefL@CContactDatabase@@QAEXJAAVTDes16@@@Z @ 216 NONAME ; public: void __thiscall CContactDatabase::ReadContactTextDefL(long,class TDes16 &)
	?ReadContactTextDefL@CContactDatabase@@QAEXJAAVTDes16@@PAVCContactTextDef@@@Z @ 217 NONAME ; public: void __thiscall CContactDatabase::ReadContactTextDefL(long,class TDes16 &,class CContactTextDef *)
	?ReadMinimalContactL@CContactDatabase@@QAEPAVCContactItem@@J@Z @ 218 NONAME ; public: class CContactItem * __thiscall CContactDatabase::ReadMinimalContactL(long)
	?ReadMinimalContactLC@CContactDatabase@@QAEPAVCContactItem@@J@Z @ 219 NONAME ; public: class CContactItem * __thiscall CContactDatabase::ReadMinimalContactLC(long)
	?ReadPrefL@CContactDatabase@@QAEXJ@Z @ 220 NONAME ABSENT ; public: void __thiscall CContactDatabase::ReadPrefL(long)
	?RecoverL@CContactDatabase@@QAEXXZ @ 221 NONAME ; public: void __thiscall CContactDatabase::RecoverL(void)
	?Remove@CContactItemFieldSet@@QAEXH@Z @ 222 NONAME ; public: void __thiscall CContactItemFieldSet::Remove(int)
	?Remove@CContactItemViewDef@@QAEXH@Z @ 223 NONAME ; public: void __thiscall CContactItemViewDef::Remove(int)
	?Remove@CContactItemViewDef@@QAEXVTUid@@@Z @ 224 NONAME ; public: void __thiscall CContactItemViewDef::Remove(class TUid)
	?RemoveContactFromGroupL@CContactDatabase@@QAEXAAVCContactItem@@0@Z @ 225 NONAME ; public: void __thiscall CContactDatabase::RemoveContactFromGroupL(class CContactItem &,class CContactItem &)
	?RemoveContactFromGroupL@CContactDatabase@@QAEXJJ@Z @ 226 NONAME ; public: void __thiscall CContactDatabase::RemoveContactFromGroupL(long,long)
	?RemoveField@CContactItem@@QAEXH@Z @ 227 NONAME ; public: void __thiscall CContactItem::RemoveField(int)
	?RemoveFieldType@CContactItemField@@QAEXVTUid@@@Z @ 228 NONAME ; public: void __thiscall CContactItemField::RemoveFieldType(class TUid)
	?RemoveFieldType@CContentType@@QAEXVTUid@@@Z @ 229 NONAME ; public: void __thiscall CContentType::RemoveFieldType(class TUid)
	?ReplaceL@CContactDatabase@@SAPAV1@ABVTDesC16@@W4TThreadAccess@1@@Z @ 230 NONAME ; public: static class CContactDatabase * __cdecl CContactDatabase::ReplaceL(class TDesC16 const &,enum CContactDatabase::TThreadAccess)
	?ReplaceL@CContactDatabase@@SAPAV1@W4TThreadAccess@1@@Z @ 231 NONAME ; public: static class CContactDatabase * __cdecl CContactDatabase::ReplaceL(enum CContactDatabase::TThreadAccess)
	?ReplacePrefL@CContactDatabase@@QAEXH@Z @ 232 NONAME ABSENT ; public: void __thiscall CContactDatabase::ReplacePrefL(int)
	?Reset@CCntFilter@@QAEXXZ @ 233 NONAME ; public: void __thiscall CCntFilter::Reset(void)
	?Reset@TContactIter@@QAEXXZ @ 234 NONAME ; public: void __thiscall TContactIter::Reset(void)
	?ResetStore@CContactItemField@@QAEXXZ @ 235 NONAME ; public: void __thiscall CContactItemField::ResetStore(void)
	?RestoreL@CContactItemFieldSet@@QAEXAAVCStreamStore@@VTStreamId@@PAV2@ABVCContactItemViewDef@@AAVRReadStream@@@Z @ 236 NONAME ; public: void __thiscall CContactItemFieldSet::RestoreL(class CStreamStore &,class TStreamId,class CStreamStore *,class CContactItemViewDef const &,class RReadStream &)
	?ReverseOrder@CContactIdArray@@QAEXXZ @ 237 NONAME ; public: void __thiscall CContactIdArray::ReverseOrder(void)
	?SetAgentId@CContactAgentField@@QAEXJ@Z @ 238 NONAME ; public: void __thiscall CContactAgentField::SetAgentId(long)
	?SetCntServerHeapFailure@CContactDatabase@@QAEXHH@Z @ 239 NONAME ; public: void __thiscall CContactDatabase::SetCntServerHeapFailure(int,int)
	?SetContactFilterTypeALL@CCntFilter@@QAEXH@Z @ 240 NONAME ; public: void __thiscall CCntFilter::SetContactFilterTypeALL(int)
	?SetContactFilterTypeCard@CCntFilter@@QAEXH@Z @ 241 NONAME ; public: void __thiscall CCntFilter::SetContactFilterTypeCard(int)
	?SetContactFilterTypeGroup@CCntFilter@@QAEXH@Z @ 242 NONAME ; public: void __thiscall CCntFilter::SetContactFilterTypeGroup(int)
	?SetContactFilterTypeOwnCard@CCntFilter@@QAEXH@Z @ 243 NONAME ; public: void __thiscall CCntFilter::SetContactFilterTypeOwnCard(int)
	?SetContactFilterTypeTemplate@CCntFilter@@QAEXH@Z @ 244 NONAME ; public: void __thiscall CCntFilter::SetContactFilterTypeTemplate(int)
	?SetCurrentItem@CContactDatabase@@QAEXJ@Z @ 245 NONAME ; public: void __thiscall CContactDatabase::SetCurrentItem(long)
	?SetDatabaseDriveL@CContactDatabase@@SAXVTDriveUnit@@H@Z @ 246 NONAME ; public: static void __cdecl CContactDatabase::SetDatabaseDriveL(class TDriveUnit,int)
	?SetDateFormatTextL@CContactDatabase@@QAEXABVTDesC16@@@Z @ 247 NONAME ; public: void __thiscall CContactDatabase::SetDateFormatTextL(class TDesC16 const &)
	?SetDbViewContactType@CContactDatabase@@QAEXVTUid@@@Z @ 248 NONAME ; public: void __thiscall CContactDatabase::SetDbViewContactType(class TUid)
	?SetDeleted@CContactItem@@QAEXH@Z @ 249 NONAME ; public: void __thiscall CContactItem::SetDeleted(int)
	?SetDisabled@CContactItemField@@QAEXH@Z @ 250 NONAME ; public: void __thiscall CContactItemField::SetDisabled(int)
	?SetFallbackField@CContactTextDef@@QAEXVTUid@@@Z @ 251 NONAME ; public: void __thiscall CContactTextDef::SetFallbackField(class TUid)
	?SetFieldAsSpeedDialL@CContactDatabase@@QAEXAAVCContactItem@@HH@Z @ 252 NONAME ; public: void __thiscall CContactDatabase::SetFieldAsSpeedDialL(class CContactItem &,int,int)
	?SetGroupLabelL@CContactGroup@@QAEXABVTDesC16@@@Z @ 253 NONAME ; public: void __thiscall CContactGroup::SetGroupLabelL(class TDesC16 const &)
	?SetHidden@CContactItem@@QAEXH@Z @ 254 NONAME ; public: void __thiscall CContactItem::SetHidden(int)
	?SetHidden@CContactItemField@@QAEXH@Z @ 255 NONAME ; public: void __thiscall CContactItemField::SetHidden(int)
	?SetId@CContactItemField@@QAEXH@Z @ 256 NONAME ; public: void __thiscall CContactItemField::SetId(int)
	?SetIncludeDeletedContacts@CCntFilter@@QAEXH@Z @ 257 NONAME ; public: void __thiscall CCntFilter::SetIncludeDeletedContacts(int)
	?SetIncludeModifiedContacts@CCntFilter@@QAEXH@Z @ 258 NONAME ; public: void __thiscall CCntFilter::SetIncludeModifiedContacts(int)
	?SetIncludeNewContacts@CCntFilter@@QAEXH@Z @ 259 NONAME ; public: void __thiscall CCntFilter::SetIncludeNewContacts(int)
	?SetLabel@CContactItemField@@QAEXPAVHBufC16@@@Z @ 260 NONAME ; public: void __thiscall CContactItemField::SetLabel(class HBufC16 *)
	?SetLabelL@CContactItemField@@QAEXABVTDesC16@@@Z @ 261 NONAME ; public: void __thiscall CContactItemField::SetLabelL(class TDesC16 const &)
	?SetLastModified@CContactItem@@QAEXABVTTime@@@Z @ 262 NONAME ; public: void __thiscall CContactItem::SetLastModified(class TTime const &)
	?SetLastSyncDateL@CContactDatabase@@QAEJABVTTime@@@Z @ 263 NONAME ; public: long __thiscall CContactDatabase::SetLastSyncDateL(class TTime const &)
	?SetLastSyncDateL@CContactDatabase@@QAEXJABVTTime@@@Z @ 264 NONAME ; public: void __thiscall CContactDatabase::SetLastSyncDateL(long,class TTime const &)
	?SetMapping@CContactItemField@@QAEXVTUid@@@Z @ 265 NONAME ; public: void __thiscall CContactItemField::SetMapping(class TUid)
	?SetMapping@CContentType@@QAEXVTUid@@@Z @ 266 NONAME ; public: void __thiscall CContentType::SetMapping(class TUid)
	?SetNumber@CContactNumberField@@QAEXH@Z @ 267 NONAME ABSENT ; public: void __thiscall CContactNumberField::SetNumber(int)
	?SetOwnCardL@CContactDatabase@@QAEXABVCContactItem@@@Z @ 268 NONAME ; public: void __thiscall CContactDatabase::SetOwnCardL(class CContactItem const &)
	?SetPrefTemplateL@CContactDatabase@@QAEXABVCContactItem@@@Z @ 269 NONAME ; public: void __thiscall CContactDatabase::SetPrefTemplateL(class CContactItem const &)
	?SetPrivate@CContactItemField@@QAEXH@Z @ 270 NONAME ; public: void __thiscall CContactItemField::SetPrivate(int)
	?SetReadOnly@CContactItemField@@QAEXH@Z @ 271 NONAME ; public: void __thiscall CContactItemField::SetReadOnly(int)
	?SetSpeedDial@CContactItemField@@QAEXH@Z @ 272 NONAME ; public: void __thiscall CContactItemField::SetSpeedDial(int)
	?SetStandardTextArray@CContactTextField@@QAEXPAVMDesC16Array@@@Z @ 273 NONAME ; public: void __thiscall CContactTextField::SetStandardTextArray(class MDesC16Array *)
	?SetStandardTextL@CContactTextField@@QAEXABVTDesC16@@@Z @ 274 NONAME ; public: void __thiscall CContactTextField::SetStandardTextL(class TDesC16 const &)
	?SetSynchronize@CContactItemField@@QAEXH@Z @ 275 NONAME ; public: void __thiscall CContactItemField::SetSynchronize(int)
	?SetSystem@CContactGroup@@QAEXH@Z @ 276 NONAME ; public: void __thiscall CContactGroup::SetSystem(int)
	?SetSystem@CContactItem@@QAEXH@Z @ 277 NONAME ; public: void __thiscall CContactItem::SetSystem(int)
	?SetTemplateField@CContactItemField@@QAEXH@Z @ 278 NONAME ; public: void __thiscall CContactItemField::SetTemplateField(int)
	?SetTemplateLabelL@CContactCardTemplate@@QAEXABVTDesC16@@@Z @ 279 NONAME ; public: void __thiscall CContactCardTemplate::SetTemplateLabelL(class TDesC16 const &)
	?SetTemplateRefId@CContactItem@@QAEXJ@Z @ 280 NONAME ; public: void __thiscall CContactItem::SetTemplateRefId(long)
	?SetText@CContactTextField@@QAEXPAVHBufC16@@@Z @ 281 NONAME ; public: void __thiscall CContactTextField::SetText(class HBufC16 *)
	?SetTextArray@CContactTextField@@QAEXPAVMDesC16Array@@@Z @ 282 NONAME ; public: void __thiscall CContactTextField::SetTextArray(class MDesC16Array *)
	?SetTextDefinitionL@CContactDatabase@@QAEXPAVCContactTextDef@@@Z @ 283 NONAME ; public: void __thiscall CContactDatabase::SetTextDefinitionL(class CContactTextDef *)
	?SetTextL@CContactTextField@@QAEXABVTDesC16@@@Z @ 284 NONAME ; public: void __thiscall CContactTextField::SetTextL(class TDesC16 const &)
	?SetThingL@CContactStoreField@@QAEXABVHBufC8@@@Z @ 285 NONAME ; public: void __thiscall CContactStoreField::SetThingL(class HBufC8 const &)
	?SetThingL@CContactStoreField@@QAEXABVTDesC8@@@Z @ 286 NONAME ; public: void __thiscall CContactStoreField::SetThingL(class TDesC8 const &)
	?SetTime@CContactDateField@@QAEXVTDateTime@@@Z @ 287 NONAME ; public: void __thiscall CContactDateField::SetTime(class TDateTime)
	?SetTime@CContactDateField@@QAEXVTTime@@@Z @ 288 NONAME ; public: void __thiscall CContactDateField::SetTime(class TTime)
	?SetUidStringL@CContactItem@@QAEXAAVTDesC16@@@Z @ 289 NONAME ; public: void __thiscall CContactItem::SetUidStringL(class TDesC16 &)
	?SetUserAddedField@CContactItemField@@QAEXH@Z @ 290 NONAME ; public: void __thiscall CContactItemField::SetUserAddedField(int)
	?SetUserFlags@CContactItemField@@QAEXI@Z @ 291 NONAME ; public: void __thiscall CContactItemField::SetUserFlags(unsigned int)
	?SetViewDefinitionL@CContactDatabase@@QAEXPAVCContactViewDef@@@Z @ 292 NONAME ; public: void __thiscall CContactDatabase::SetViewDefinitionL(class CContactViewDef *)
	?SortArrayL@CContactDatabase@@QAEPAVCContactIdArray@@PBV2@PBV?$CArrayFix@VTSortPref@CContactDatabase@@@@@Z @ 293 NONAME ; public: class CContactIdArray * __thiscall CContactDatabase::SortArrayL(class CContactIdArray const *,class CArrayFix<class CContactDatabase::TSortPref> const *)
	?SortArrayLC@CContactDatabase@@QAEPAVCContactIdArray@@PBV2@PBV?$CArrayFix@VTSortPref@CContactDatabase@@@@@Z @ 294 NONAME ; public: class CContactIdArray * __thiscall CContactDatabase::SortArrayLC(class CContactIdArray const *,class CArrayFix<class CContactDatabase::TSortPref> const *)
	?SortByTypeL@CContactDatabase@@QAEXPAV?$CArrayFix@VTSortPref@CContactDatabase@@@@@Z @ 295 NONAME ; public: void __thiscall CContactDatabase::SortByTypeL(class CArrayFix<class CContactDatabase::TSortPref> *)
	?SortL@CContactDatabase@@QAEXPAV?$CArrayFix@VTSortPref@CContactDatabase@@@@@Z @ 296 NONAME ; public: void __thiscall CContactDatabase::SortL(class CArrayFix<class CContactDatabase::TSortPref> *)
	?SortedItemsL@CContactDatabase@@QAEPBVCContactIdArray@@XZ @ 297 NONAME ; public: class CContactIdArray const * __thiscall CContactDatabase::SortedItemsL(void)
	?StandardTextLC@CContactTextField@@QBE?AVTPtrC16@@XZ @ 298 NONAME ; public: class TPtrC16  __thiscall CContactTextField::StandardTextLC(void)const 
	?Storage@CContactItemField@@QBEPAVCContactFieldStorage@@XZ @ 299 NONAME ; public: class CContactFieldStorage * __thiscall CContactItemField::Storage(void)const 
	?StorageType@CContactItemField@@QBEIXZ @ 300 NONAME ; public: unsigned int __thiscall CContactItemField::StorageType(void)const 
	?StoreL@CContactItemFieldSet@@QAE?AVTStreamId@@AAVCStreamStore@@AAVRWriteStream@@0@Z @ 301 NONAME ; public: class TStreamId  __thiscall CContactItemFieldSet::StoreL(class CStreamStore &,class RWriteStream &,class CStreamStore &)
	?StoreStorage@CContactItemField@@QBEPAVCContactStoreField@@XZ @ 302 NONAME ; public: class CContactStoreField * __thiscall CContactItemField::StoreStorage(void)const 
	?SupportsMultipleLines@CContentType@@QBEHXZ @ 303 NONAME ; public: int __thiscall CContentType::SupportsMultipleLines(void)const 
	?TakeContactIds@CIdleFinder@@QAEPAVCContactIdArray@@XZ @ 304 NONAME ; public: class CContactIdArray * __thiscall CIdleFinder::TakeContactIds(void)
	?TemplateContentType@CContactDatabase@@QBEABVCContentType@@ABVCContactItemField@@@Z @ 305 NONAME ; public: class CContentType const & __thiscall CContactDatabase::TemplateContentType(class CContactItemField const &)const 
	?TemplateId@CContactDatabase@@QBEJXZ @ 306 NONAME ; public: long __thiscall CContactDatabase::TemplateId(void)const 
	?TemplateRefId@CContactItem@@QBEJXZ @ 307 NONAME ; public: long __thiscall CContactItem::TemplateRefId(void)const 
	?TestContactFilterType@CCntFilter@@QAEHVTUid@@@Z @ 308 NONAME ; public: int __thiscall CCntFilter::TestContactFilterType(class TUid)
	?Text@CContactTextField@@QBE?AVTPtrC16@@XZ @ 309 NONAME ; public: class TPtrC16  __thiscall CContactTextField::Text(void)const 
	?TextDefinition@CContactDatabase@@QBEPBVCContactTextDef@@XZ @ 310 NONAME ; public: class CContactTextDef const * __thiscall CContactDatabase::TextDefinition(void)const 
	?TextStorage@CContactItemField@@QBEPAVCContactTextField@@XZ @ 311 NONAME ; public: class CContactTextField * __thiscall CContactItemField::TextStorage(void)const 
	?TextToPhoneMatchNumber@CContactDatabase@@SAHABVTDesC16@@AAHH@Z @ 312 NONAME ABSENT ; public: static int __cdecl CContactDatabase::TextToPhoneMatchNumber(class TDesC16 const &,int &,int)
	?Thing@CContactStoreField@@QBEPAVHBufC8@@XZ @ 313 NONAME ; public: class HBufC8 * __thiscall CContactStoreField::Thing(void)const 
	?Time@CContactDateField@@QBE?AVTTime@@XZ @ 314 NONAME ; public: class TTime  __thiscall CContactDateField::Time(void)const 
	?Type@CContactCard@@UBE?AVTUid@@XZ @ 315 NONAME ; public: virtual class TUid  __thiscall CContactCard::Type(void)const 
	?Type@CContactCardTemplate@@MBE?AVTUid@@XZ @ 316 NONAME ; protected: virtual class TUid  __thiscall CContactCardTemplate::Type(void)const 
	?Type@CContactGroup@@UBE?AVTUid@@XZ @ 317 NONAME ; public: virtual class TUid  __thiscall CContactGroup::Type(void)const 
	?Type@CContactOwnCard@@UBE?AVTUid@@XZ @ 318 NONAME ; public: virtual class TUid  __thiscall CContactOwnCard::Type(void)const 
	?Type@CContactTemplate@@UBE?AVTUid@@XZ @ 319 NONAME ; public: virtual class TUid  __thiscall CContactTemplate::Type(void)const 
	?UidStringL@CContactItem@@QBE?AVTPtrC16@@_J@Z @ 320 NONAME ; public: class TPtrC16  __thiscall CContactItem::UidStringL(long long)const 
	?UpdateContactLC@CContactDatabase@@QAEPAVCContactItem@@JPAV2@@Z @ 321 NONAME ; public: class CContactItem * __thiscall CContactDatabase::UpdateContactLC(long,class CContactItem *)
	?UpdateFieldL@CContactItemFieldSet@@QAEXABVCContactItemField@@H@Z @ 322 NONAME ; public: void __thiscall CContactItemFieldSet::UpdateFieldL(class CContactItemField const &,int)
	?UpdateFieldSet@CContactItem@@QAEXPAVCContactItemFieldSet@@@Z @ 323 NONAME ; public: void __thiscall CContactItem::UpdateFieldSet(class CContactItemFieldSet *)
	?UserFlags@CContactItemField@@QBEIXZ @ 324 NONAME ; public: unsigned int __thiscall CContactItemField::UserFlags(void)const 
	?Value@CContactAgentField@@QBEJXZ @ 325 NONAME ; public: long __thiscall CContactAgentField::Value(void)const 
	?Value@CContactNumberField@@QBEHXZ @ 326 NONAME ABSENT ; public: int __thiscall CContactNumberField::Value(void)const 
	?Version@CContactDatabase@@QBE?AVTVersion@@XZ @ 327 NONAME ; public: class TVersion  __thiscall CContactDatabase::Version(void)const 
	?doAddNewContactL@CContactDatabase@@QAEJAAVCContactItem@@HH@Z @ 328 NONAME ; public: long __thiscall CContactDatabase::doAddNewContactL(class CContactItem &,int,int)
	?doCommitContactL@CContactDatabase@@QAEXABVCContactItem@@HH@Z @ 329 NONAME ; public: void __thiscall CContactDatabase::doCommitContactL(class CContactItem const &,int,int)
	?doDeleteContactL@CContactDatabase@@QAEXJHHH@Z @ 330 NONAME ; public: void __thiscall CContactDatabase::doDeleteContactL(long,int,int,int)
	?CContactFieldStorage_Reserved1@CContactFieldStorage@@EAEXXZ @ 331 NONAME ; private: virtual void __thiscall CContactFieldStorage::CContactFieldStorage_Reserved1(void)
	?MContactUiActive_Reserved1@MContactUiActive@@EAEXXZ @ 332 NONAME ; private: virtual void __thiscall MContactUiActive::MContactUiActive_Reserved1(void)
	?CContactFieldStorage_Reserved1@CContactAgentField@@EAEXXZ @ 333 NONAME ; private: virtual void __thiscall CContactAgentField::CContactFieldStorage_Reserved1(void)
	?CContactFieldStorage_Reserved1@CContactDateField@@EAEXXZ @ 334 NONAME ; private: virtual void __thiscall CContactDateField::CContactFieldStorage_Reserved1(void)
	?CContactFieldStorage_Reserved1@CContactNumberField@@EAEXXZ @ 335 NONAME ABSENT ; private: virtual void __thiscall CContactNumberField::CContactFieldStorage_Reserved1(void)
	?CContactFieldStorage_Reserved1@CContactStoreField@@EAEXXZ @ 336 NONAME ; private: virtual void __thiscall CContactStoreField::CContactFieldStorage_Reserved1(void)
	?CContactFieldStorage_Reserved1@CContactTextField@@EAEXXZ @ 337 NONAME ; private: virtual void __thiscall CContactTextField::CContactFieldStorage_Reserved1(void)
	?RemoveSpeedDialFieldL@CContactDatabase@@QAEXJH@Z @ 338 NONAME ; public: void __thiscall CContactDatabase::RemoveSpeedDialFieldL(long,int)
	??1CContactItemPlusGroup@@MAE@XZ @ 339 NONAME ; protected: virtual __thiscall CContactItemPlusGroup::~CContactItemPlusGroup(void)
	?GroupsJoined@CContactItemPlusGroup@@QBEPBVCContactIdArray@@XZ @ 340 NONAME ; public: class CContactIdArray const * __thiscall CContactItemPlusGroup::GroupsJoined(void)const 
	?GroupsJoinedLC@CContactItemPlusGroup@@QBEPAVCContactIdArray@@XZ @ 341 NONAME ; public: class CContactIdArray * __thiscall CContactItemPlusGroup::GroupsJoinedLC(void)const 
	?DatabaseBeginL@CContactDatabase@@QAEXH@Z @ 342 NONAME ; public: void __thiscall CContactDatabase::DatabaseBeginL(int)
	?DatabaseCommitL@CContactDatabase@@QAEXH@Z @ 343 NONAME ; public: void __thiscall CContactDatabase::DatabaseCommitL(int)
	?DatabaseRollback@CContactDatabase@@QAEXXZ @ 344 NONAME ; public: void __thiscall CContactDatabase::DatabaseRollback(void)
	?GetCurrentDatabase@CContactDatabase@@QBEHAAVTDes16@@@Z @ 345 NONAME ; public: int __thiscall CContactDatabase::GetCurrentDatabase(class TDes16 &)const 
	?SetCurrentDatabase@CContactDatabase@@QBEHABVTDesC16@@@Z @ 346 NONAME ; public: int __thiscall CContactDatabase::SetCurrentDatabase(class TDesC16 const &)const 
	?AddContactToGroupL@CContactDatabase@@QAEXJJH@Z @ 347 NONAME ; public: void __thiscall CContactDatabase::AddContactToGroupL(long,long,int)
	?SetSortedItemsList@CContactDatabase@@QAEXPAVCContactIdArray@@PAV?$CArrayFix@VTSortPref@CContactDatabase@@@@@Z @ 348 NONAME ; public: void __thiscall CContactDatabase::SetSortedItemsList(class CContactIdArray *,class CArrayFix<class CContactDatabase::TSortPref> *)
	?ResetServerSpeedDialsL@CContactDatabase@@QAEXXZ @ 349 NONAME ; public: void __thiscall CContactDatabase::ResetServerSpeedDialsL(void)
	?CancelAsyncSort@CContactDatabase@@QAEXXZ @ 350 NONAME ; public: void __thiscall CContactDatabase::CancelAsyncSort(void)
	?SortAsyncL@CContactDatabase@@QAEXPAV?$CArrayFix@VTSortPref@CContactDatabase@@@@AAVTRequestStatus@@@Z @ 351 NONAME ; public: void __thiscall CContactDatabase::SortAsyncL(class CArrayFix<class CContactDatabase::TSortPref> *,class TRequestStatus &)
	?SortAsyncL@CContactDatabase@@QAEXPAV?$CArrayFix@VTSortPref@CContactDatabase@@@@AAVTRequestStatus@@AAVMContactSortObserver@@@Z @ 352 NONAME ; public: void __thiscall CContactDatabase::SortAsyncL(class CArrayFix<class CContactDatabase::TSortPref> *,class TRequestStatus &,class MContactSortObserver &)
	??0CContactLocalView@@IAE@ABVCContactDatabase@@W4TContactViewPreferences@@@Z @ 353 NONAME ; protected: __thiscall CContactLocalView::CContactLocalView(class CContactDatabase const &,enum TContactViewPreferences)
	??0CContactViewBase@@IAE@ABVCContactDatabase@@@Z @ 354 NONAME ; protected: __thiscall CContactViewBase::CContactViewBase(class CContactDatabase const &)
	??0CViewContact@@QAE@J@Z @ 355 NONAME ; public: __thiscall CViewContact::CViewContact(long)
	??0RContactViewSortOrder@@QAE@XZ @ 356 NONAME ; public: __thiscall RContactViewSortOrder::RContactViewSortOrder(void)
	??1CContactLocalView@@MAE@XZ @ 357 NONAME ; protected: virtual __thiscall CContactLocalView::~CContactLocalView(void)
	??1CContactViewBase@@MAE@XZ @ 358 NONAME ; protected: virtual __thiscall CContactViewBase::~CContactViewBase(void)
	??1CViewContact@@UAE@XZ @ 359 NONAME ; public: virtual __thiscall CViewContact::~CViewContact(void)
	??8RContactViewSortOrder@@QBEHABV0@@Z @ 360 NONAME ; public: int __thiscall RContactViewSortOrder::operator==(class RContactViewSortOrder const &)const 
	?CContactLocalView_Reserved_1@CContactLocalView@@EAEXXZ @ 361 NONAME ; private: virtual void __thiscall CContactLocalView::CContactLocalView_Reserved_1(void)
	?CContactLocalView_Reserved_2@CContactLocalView@@EAEXXZ @ 362 NONAME ; private: virtual void __thiscall CContactLocalView::CContactLocalView_Reserved_2(void)
	?CContactViewBase_Reserved_1@CContactViewBase@@UAEPAXW4TFunction@1@PAX@Z @ 363 NONAME ; public: virtual void * __thiscall CContactViewBase::CContactViewBase_Reserved_1(enum CContactViewBase::TFunction,void *)
	?ContactsMatchingPrefixL@CContactViewBase@@UAEXABVMDesC16Array@@AAV?$RPointerArray@VCViewContact@@@@@Z @ 364 NONAME ; public: virtual void __thiscall CContactViewBase::ContactsMatchingPrefixL(class MDesC16Array const &,class RPointerArray<class CViewContact> &)
	?ChangeSortOrderL@CContactNamedLocalView@@QAEXAAVRContactViewSortOrder@@@Z @ 365 NONAME ; public: void __thiscall CContactNamedLocalView::ChangeSortOrderL(class RContactViewSortOrder &)
	?ChangeSortOrderL@CContactNamedRemoteView@@QAEXABVRContactViewSortOrder@@@Z @ 366 NONAME ; public: void __thiscall CContactNamedRemoteView::ChangeSortOrderL(class RContactViewSortOrder const &)
	?Close@CContactViewBase@@QAEHABVMContactViewObserver@@@Z @ 367 NONAME ; public: int __thiscall CContactViewBase::Close(class MContactViewObserver const &)
	?Close@RContactViewSortOrder@@QAEXXZ @ 368 NONAME ; public: void __thiscall RContactViewSortOrder::Close(void)
	?CompareFieldsL@CContactViewBase@@KAHABVCViewContact@@0@Z @ 369 NONAME ; protected: static int __cdecl CContactViewBase::CompareFieldsL(class CViewContact const &,class CViewContact const &)
	?ConstructL@CContactLocalView@@IAEXAAVMContactViewObserver@@ABVRContactViewSortOrder@@@Z @ 370 NONAME ; protected: void __thiscall CContactLocalView::ConstructL(class MContactViewObserver &,class RContactViewSortOrder const &)
	?ConstructL@CContactViewBase@@IAEXXZ @ 371 NONAME ; protected: void __thiscall CContactViewBase::ConstructL(void)
	?ContactMatchesHintFieldL@CContactDatabase@@QAEHHJ@Z @ 372 NONAME ; public: int __thiscall CContactDatabase::ContactMatchesHintFieldL(int,long)
	?ContactsMatchingCriteriaL@CContactViewBase@@UAEXABVMDesC16Array@@AAV?$RPointerArray@VCViewContact@@@@@Z @ 373 NONAME ; public: virtual void __thiscall CContactViewBase::ContactsMatchingCriteriaL(class MDesC16Array const &,class RPointerArray<class CViewContact> &)
	?CopyL@RContactViewSortOrder@@QAEXABV1@@Z @ 374 NONAME ; public: void __thiscall RContactViewSortOrder::CopyL(class RContactViewSortOrder const &)
	?ExactMatchOnly@CContactTextDef@@QAEHXZ @ 375 NONAME ; int CContactTextDef::ExactMatchOnly(void)
	?ExternalizeL@CViewContact@@QBEXAAVRWriteStream@@@Z @ 376 NONAME ; public: void __thiscall CViewContact::ExternalizeL(class RWriteStream &)const 
	?ExternalizeL@RContactViewSortOrder@@QBEXAAVRWriteStream@@@Z @ 377 NONAME ; public: void __thiscall RContactViewSortOrder::ExternalizeL(class RWriteStream &)const 
	?ExternalizedSize@CViewContact@@QBEHXZ @ 378 NONAME ; public: int __thiscall CViewContact::ExternalizedSize(void)const 
	?ExternalizedSize@RContactViewSortOrder@@QBEHXZ @ 379 NONAME ; public: int __thiscall RContactViewSortOrder::ExternalizedSize(void)const 
	?Field@CViewContact@@QBE?AVTPtrC16@@H@Z @ 380 NONAME ; public: class TPtrC16  __thiscall CViewContact::Field(int)const 
	?FieldCount@CViewContact@@QBEHXZ @ 381 NONAME ; public: int __thiscall CViewContact::FieldCount(void)const 
	?FieldsWithSeparatorLC@CContactViewBase@@IBEPAVHBufC16@@ABV?$RPointerArray@VCViewContact@@@@HABVTDesC16@@@Z @ 382 NONAME ; protected: class HBufC16 * __thiscall CContactViewBase::FieldsWithSeparatorLC(class RPointerArray<class CViewContact> const &,int,class TDesC16 const &)const 
	?GetSortOrderL@CContactRemoteView@@QAEXAAVRContactViewSortOrder@@@Z @ 383 NONAME ; public: void __thiscall CContactRemoteView::GetSortOrderL(class RContactViewSortOrder &)
	?IdsEqual@CContactViewBase@@KAHABUTContactIdWithMapping@@0@Z @ 384 NONAME ; protected: static int __cdecl CContactViewBase::IdsEqual(struct TContactIdWithMapping const &,struct TContactIdWithMapping const &)
	?IdsMatch@CContactViewBase@@KAHABVCViewContact@@0@Z @ 385 NONAME ; protected: static int __cdecl CContactViewBase::IdsMatch(class CViewContact const &,class CViewContact const &)
	?IndexesEqual@CContactViewBase@@KAHABUTContactIdWithMapping@@0@Z @ 386 NONAME ; protected: static int __cdecl CContactViewBase::IndexesEqual(struct TContactIdWithMapping const &,struct TContactIdWithMapping const &)
	?InsertL@CContactLocalView@@MAEHJ@Z @ 387 NONAME ; protected: virtual int __thiscall CContactLocalView::InsertL(long)
	?InternalizeL@CViewContact@@QAEXAAVRReadStream@@@Z @ 388 NONAME ; public: void __thiscall CViewContact::InternalizeL(class RReadStream &)
	?InternalizeL@RContactViewSortOrder@@QAEXAAVRReadStream@@@Z @ 389 NONAME ; public: void __thiscall RContactViewSortOrder::InternalizeL(class RReadStream &)
	?MatchesCriteriaL@CContactViewBase@@MAEHABVCViewContact@@ABVMDesC16Array@@@Z @ 390 NONAME ; protected: virtual int __thiscall CContactViewBase::MatchesCriteriaL(class CViewContact const &,class MDesC16Array const &)
	?Name@CContactNamedLocalView@@QAEABVTDesC16@@XZ @ 391 NONAME ; public: class TDesC16 const & __thiscall CContactNamedLocalView::Name(void)
	?NewL@CContactLocalView@@SAPAV1@AAVMContactViewObserver@@ABVCContactDatabase@@ABVRContactViewSortOrder@@W4TContactViewPreferences@@@Z @ 392 NONAME ; public: static class CContactLocalView * __cdecl CContactLocalView::NewL(class MContactViewObserver &,class CContactDatabase const &,class RContactViewSortOrder const &,enum TContactViewPreferences)
	?NewL@CContactNamedLocalView@@SAPAV1@AAVMContactViewObserver@@ABVTDesC16@@ABVCContactDatabase@@ABVRContactViewSortOrder@@W4TContactViewPreferences@@@Z @ 393 NONAME ; public: static class CContactNamedLocalView * __cdecl CContactNamedLocalView::NewL(class MContactViewObserver &,class TDesC16 const &,class CContactDatabase const &,class RContactViewSortOrder const &,enum TContactViewPreferences)
	?NewL@CContactNamedRemoteView@@SAPAV1@AAVMContactViewObserver@@ABVTDesC16@@ABVCContactDatabase@@ABVRContactViewSortOrder@@W4TContactViewPreferences@@@Z @ 394 NONAME ; public: static class CContactNamedRemoteView * __cdecl CContactNamedRemoteView::NewL(class MContactViewObserver &,class TDesC16 const &,class CContactDatabase const &,class RContactViewSortOrder const &,enum TContactViewPreferences)
	?NewL@CContactRemoteView@@SAPAV1@AAVMContactViewObserver@@ABVCContactDatabase@@ABVRContactViewSortOrder@@W4TContactViewPreferences@@@Z @ 395 NONAME ; public: static class CContactRemoteView * __cdecl CContactRemoteView::NewL(class MContactViewObserver &,class CContactDatabase const &,class RContactViewSortOrder const &,enum TContactViewPreferences)
	?NewL@CViewContact@@SAPAV1@ABV1@@Z @ 396 NONAME ; public: static class CViewContact * __cdecl CViewContact::NewL(class CViewContact const &)
	?NotifyObserverAsync@CContactViewBase@@IAEHAAVMContactViewObserver@@ABVTContactViewEvent@@@Z @ 397 NONAME ; protected: int __thiscall CContactViewBase::NotifyObserverAsync(class MContactViewObserver &,class TContactViewEvent const &)
	?NotifyObservers@CContactViewBase@@IAEXABVTContactViewEvent@@@Z @ 398 NONAME ; protected: void __thiscall CContactViewBase::NotifyObservers(class TContactViewEvent const &)
	?Open@CContactViewBase@@QAEHAAVMContactViewObserver@@@Z @ 399 NONAME ; public: int __thiscall CContactViewBase::Open(class MContactViewObserver &)
	?OpenL@CContactViewBase@@QAEXAAVMContactViewObserver@@@Z @ 400 NONAME ; public: void __thiscall CContactViewBase::OpenL(class MContactViewObserver &)
	?RemoveL@CContactLocalView@@MAEHJ@Z @ 401 NONAME ; protected: virtual int __thiscall CContactLocalView::RemoveL(long)
	?RestoreSortOrderL@CContactDatabase@@QAEXXZ @ 402 NONAME ; public: void __thiscall CContactDatabase::RestoreSortOrderL(void)
	?SetExactMatchOnly@CContactTextDef@@QAEXH@Z @ 403 NONAME ; public: void __thiscall CContactTextDef::SetExactMatchOnly(int)
	?SortL@CContactLocalView@@MAEXABVRContactViewSortOrder@@@Z @ 404 NONAME ; protected: virtual void __thiscall CContactLocalView::SortL(class RContactViewSortOrder const &)
	?SortOrder@CContactDatabase@@QBEPBV?$CArrayFix@VTSortPref@CContactDatabase@@@@XZ @ 405 NONAME ; public: class CArrayFix<class CContactDatabase::TSortPref> const * __thiscall CContactDatabase::SortOrder(void)const 
	?SortOrder@CContactLocalView@@QBEABVRContactViewSortOrder@@XZ @ 406 NONAME ; public: class RContactViewSortOrder const & __thiscall CContactLocalView::SortOrder(void)const 
	?StoreSortOrderL@CContactDatabase@@QAEXXZ @ 407 NONAME ; public: void __thiscall CContactDatabase::StoreSortOrderL(void)
	?SetThingL@CContactStoreField@@QAEXPBVCBufBase@@@Z @ 408 NONAME ; public: void __thiscall CContactStoreField::SetThingL(class CBufBase const *)
	?IsEqualForSyncUpdate@CContentType@@QBEHABV1@@Z @ 409 NONAME ; public: int __thiscall CContentType::IsEqualForSyncUpdate(class CContentType const &)const 
	?UpdateFieldSyncL@CContactItemFieldSet@@QAEXABVCContactItemField@@H@Z @ 410 NONAME ; public: void __thiscall CContactItemFieldSet::UpdateFieldSyncL(class CContactItemField const &,int)
	??1CContactICCEntry@@UAE@XZ @ 411 NONAME ; public: virtual __thiscall CContactICCEntry::~CContactICCEntry(void)
	?ICCTemplateIdL@CContactDatabase@@QAEJXZ @ 412 NONAME ; public: long __thiscall CContactDatabase::ICCTemplateIdL(void)
	?MContactSynchroniser_Reserved_1@MContactSynchroniser@@EAEXXZ @ 413 NONAME ; private: virtual void __thiscall MContactSynchroniser::MContactSynchroniser_Reserved_1(void)
	?NewL@CContactICCEntry@@SAPAV1@ABVCContactItem@@@Z @ 414 NONAME ; public: static class CContactICCEntry * __cdecl CContactICCEntry::NewL(class CContactItem const &)
	?WastedSpaceInBytes@CContactDatabase@@QBEHXZ @ 415 NONAME ; public: int __thiscall CContactDatabase::WastedSpaceInBytes(void)const 
	?UnfiledContactsL@CContactDatabase@@QAEPAVCContactIdArray@@XZ @ 416 NONAME ; public: class CContactIdArray * __thiscall CContactDatabase::UnfiledContactsL(void)
	?MatchesCriteriaL@CContactViewBase@@KAHABVCViewContact@@ABVMDesC16Array@@W4TSearchType@1@@Z @ 417 NONAME ; protected: static int __cdecl CContactViewBase::MatchesCriteriaL(class CViewContact const &,class MDesC16Array const &,enum CContactViewBase::TSearchType)
	?PhonebookGroupIdL@CContactDatabase@@QAEJXZ @ 418 NONAME ; public: long __thiscall CContactDatabase::PhonebookGroupIdL(void)
	?GetViewFindConfigPlugin@CContactViewBase@@QAE?AVTUid@@XZ @ 419 NONAME ; public: class TUid  __thiscall CContactViewBase::GetViewFindConfigPlugin(void)
	?SetViewFindConfigPlugin@CContactViewBase@@QAEXVTUid@@@Z @ 420 NONAME ; public: void __thiscall CContactViewBase::SetViewFindConfigPlugin(class TUid)
	?MatchesCriteriaL@CContactViewBase@@KAHABVCViewContact@@ABVMDesC16Array@@W4TSearchType@1@PAVCContactViewBaseExtension@1@@Z @ 421 NONAME ; protected: static int __cdecl CContactViewBase::MatchesCriteriaL(class CViewContact const &,class MDesC16Array const &,enum CContactViewBase::TSearchType,class CContactViewBase::CContactViewBaseExtension *)
	?ICCTemplateIdL@CContactDatabase@@QAEJVTUid@@@Z @ 422 NONAME ; public: long __thiscall CContactDatabase::ICCTemplateIdL(class TUid)
	?RecreateSystemTemplateL@CContactDatabase@@SAXABVTDesC16@@@Z @ 423 NONAME ; public: static void __cdecl CContactDatabase::RecreateSystemTemplateL(class TDesC16 const &)
	?GetContactIdsL@CContactViewBase@@QAEXABV?$CArrayFix@H@@AAVCContactIdArray@@@Z @ 424 NONAME ABSENT ; public: void __thiscall CContactViewBase::GetContactIdsL(class CArrayFix<int> const &,class CContactIdArray &)
	?CContactViewBase_Reserved_1@CContactLocalView@@UAEPAXW4TFunction@CContactViewBase@@PAX@Z @ 425 NONAME ; public: virtual void * __thiscall CContactLocalView::CContactViewBase_Reserved_1(enum CContactViewBase::TFunction,void *)
	?Error@CContactViewBase@@QBEHXZ @ 426 NONAME ; public: int __thiscall CContactViewBase::Error(void)const 
	?ContactMatchesFilter@CViewContact@@QBEHH@Z @ 427 NONAME ; public: int __thiscall CViewContact::ContactMatchesFilter(int)const 
	?NewLC@CViewContact@@SAPAV1@J@Z @ 428 NONAME ; public: static class CViewContact * __cdecl CViewContact::NewLC(long)
	?AddFieldL@CViewContact@@QAEXABVTDesC16@@@Z @ 429 NONAME ; public: void __thiscall CViewContact::AddFieldL(class TDesC16 const &)
	?CompareContactIds@CContactViewBase@@KAHABVCViewContact@@0@Z @ 430 NONAME ; protected: static int __cdecl CContactViewBase::CompareContactIds(class CViewContact const &,class CViewContact const &)
	?CompareContactsAndIdsL@CContactViewBase@@IBEHABVCViewContact@@0@Z @ 431 NONAME ; protected: int __thiscall CContactViewBase::CompareContactsAndIdsL(class CViewContact const &,class CViewContact const &)const 
	?ContactIsSortable@CContactViewBase@@KAHABVCViewContact@@@Z @ 432 NONAME ; protected: static int __cdecl CContactViewBase::ContactIsSortable(class CViewContact const &)
	?NewL@CContactLocalView@@SAPAV1@AAVMContactViewObserver@@ABVCContactDatabase@@ABVRContactViewSortOrder@@W4TContactViewPreferences@@ABVTDesC8@@@Z @ 433 NONAME ; public: static class CContactLocalView * __cdecl CContactLocalView::NewL(class MContactViewObserver &,class CContactDatabase const &,class RContactViewSortOrder const &,enum TContactViewPreferences,class TDesC8 const &)
	?NewL@CContactRemoteView@@SAPAV1@AAVMContactViewObserver@@ABVCContactDatabase@@ABVRContactViewSortOrder@@W4TContactViewPreferences@@ABVTDesC8@@@Z @ 434 NONAME ; public: static class CContactRemoteView * __cdecl CContactRemoteView::NewL(class MContactViewObserver &,class CContactDatabase const &,class RContactViewSortOrder const &,enum TContactViewPreferences,class TDesC8 const &)
	?NewL@CContactNamedRemoteView@@SAPAV1@AAVMContactViewObserver@@ABVTDesC16@@ABVCContactDatabase@@ABVRContactViewSortOrder@@W4TContactViewPreferences@@ABVTDesC8@@@Z @ 435 NONAME ; public: static class CContactNamedRemoteView * __cdecl CContactNamedRemoteView::NewL(class MContactViewObserver &,class TDesC16 const &,class CContactDatabase const &,class RContactViewSortOrder const &,enum TContactViewPreferences,class TDesC8 const &)
	?GetViewSortPluginImplUid@CContactViewBase@@QBE?AVTUid@@XZ @ 436 NONAME ; public: class TUid  __thiscall CContactViewBase::GetViewSortPluginImplUid(void)const 
	?NewL@CContactNamedLocalView@@SAPAV1@AAVMContactViewObserver@@ABVTDesC16@@ABVCContactDatabase@@ABVRContactViewSortOrder@@W4TContactViewPreferences@@ABVTDesC8@@@Z @ 437 NONAME ; public: static class CContactNamedLocalView * __cdecl CContactNamedLocalView::NewL(class MContactViewObserver &,class TDesC16 const &,class CContactDatabase const &,class RContactViewSortOrder const &,enum TContactViewPreferences,class TDesC8 const &)
	?ContactDatabaseExistsL@CContactDatabase@@SAHABVTDesC16@@@Z @ 438 NONAME
	?DefaultContactDatabaseExistsL@CContactDatabase@@SAHXZ @ 439 NONAME
	?DeleteDatabaseL@CContactDatabase@@SAXABVTDesC16@@@Z @ 440 NONAME
	?ListDatabasesL@CContactDatabase@@SAPAVCDesC16Array@@VTDriveUnit@@@Z @ 441 NONAME
	?ListDatabasesL@CContactDatabase@@SAPAVCDesC16Array@@XZ @ 442 NONAME
	?LockServerConnectL@CContactDatabase@@SAPAV1@ABVTDesC16@@H@Z @ 443 NONAME
	?LockServerCallBackL@CContactDatabase@@QAEHI@Z @ 444 NONAME
	?LockServerCleanup@CContactDatabase@@QAEXXZ @ 445 NONAME
	??1CContactSynchroniser@@UAE@XZ @ 446 NONAME ; CContactSynchroniser::~CContactSynchroniser(void)
	??1CContactOpenOperation@@UAE@XZ @ 447 NONAME
	?Open@CContactDatabase@@SAPAVCContactOpenOperation@@AAVTRequestStatus@@W4TThreadAccess@1@@Z @ 448 NONAME
	?Open@CContactDatabase@@SAPAVCContactOpenOperation@@ABVTDesC16@@AAVTRequestStatus@@W4TThreadAccess@1@@Z @ 449 NONAME
	?TakeDatabase@CContactOpenOperation@@QAEPAVCContactDatabase@@XZ @ 450 NONAME
	?GetContactIdsL@CContactViewBase@@UAEXABV?$CArrayFix@H@@AAVCContactIdArray@@@Z @ 451 NONAME ; void CContactViewBase::GetContactIdsL(class CArrayFix<int> const &, class CContactIdArray &)
	??1CCntPackager@@UAE@XZ @ 452 NONAME ; public: virtual __thiscall CCntPackager::~CCntPackager(void)
	?AddContactL@CContactGroup@@QAEXJ@Z @ 453 NONAME ; public: void __thiscall CContactGroup::AddContactL(long)
	?Clear@CCntPackager@@QAEXXZ @ 454 NONAME ; public: void __thiscall CCntPackager::Clear(void)
	?ContactHint@CViewContact@@QBEHXZ @ 455 NONAME ; public: int __thiscall CViewContact::ContactHint(void)const 
	?ContactTypeUid@CViewContact@@QBE?AVTUid@@XZ @ 456 NONAME ; public: class TUid  __thiscall CViewContact::ContactTypeUid(void)const 
	?ExternalizeL@TSortPref@CContactDatabase@@QBEXAAVRWriteStream@@@Z @ 457 NONAME ; public: void __thiscall CContactDatabase::TSortPref::ExternalizeL(class RWriteStream &)const 
	?GetCreationDate@ContactGuid@@SAHAAVTDes16@@_J@Z @ 458 NONAME ; public: static int __cdecl ContactGuid::GetCreationDate(class TDes16 &,__int64)
	?GetFieldText@CContactItemField@@QBEXAAVTDes16@@@Z @ 459 NONAME ; public: void __thiscall CContactItemField::GetFieldText(class TDes16 &)const 
	?GetReceivingBufferL@CCntPackager@@QAEAAVTDes8@@H@Z @ 460 NONAME ; public: class TDes8 & __thiscall CCntPackager::GetReceivingBufferL(int)
	?GetTransmittingBuffer@CCntPackager@@QBEABVTDesC8@@XZ @ 461 NONAME ; public: class TDesC8 const & __thiscall CCntPackager::GetTransmittingBuffer(void)const 
	?HasCustomFilter@CContactItemField@@QBEHAAW4EContactFieldFlags@@@Z @ 462 NONAME ; public: int __thiscall CContactItemField::HasCustomFilter(enum EContactFieldFlags &)const 
	?InternalizeL@TSortPref@CContactDatabase@@QAEXAAVRReadStream@@@Z @ 463 NONAME ; public: void __thiscall CContactDatabase::TSortPref::InternalizeL(class RReadStream &)
	?IsSortable@CViewContact@@QBEHXZ @ 464 NONAME ; public: int __thiscall CViewContact::IsSortable(void)const 
	?NewL@CCntPackager@@SAPAV1@XZ @ 465 NONAME ; public: static class CCntPackager * __cdecl CCntPackager::NewL(void)
	?NewL@CContactLocalView@@SAPAV1@AAVMContactViewObserver@@ABVCContactDatabase@@ABVRContactViewSortOrder@@W4TContactViewPreferences@@PAVMLplPersistenceLayerFactory@@ABVTDesC8@@@Z @ 466 NONAME ; public: static class CContactLocalView * __cdecl CContactLocalView::NewL(class MContactViewObserver &,class CContactDatabase const &,class RContactViewSortOrder const &,enum TContactViewPreferences,class MLplPersistenceLayerFactory *,class TDesC8 const &)
	?NewL@CContactNamedLocalView@@SAPAV1@AAVMContactViewObserver@@ABVTDesC16@@ABVCContactDatabase@@ABVRContactViewSortOrder@@W4TContactViewPreferences@@PAVMLplPersistenceLayerFactory@@ABVTDesC8@@@Z @ 467 NONAME ; public: static class CContactNamedLocalView * __cdecl CContactNamedLocalView::NewL(class MContactViewObserver &,class TDesC16 const &,class CContactDatabase const &,class RContactViewSortOrder const &,enum TContactViewPreferences,class MLplPersistenceLayerFactory *,class TDesC8 const &)
	?NewL@CViewContact@@SAPAV1@JH@Z @ 468 NONAME ; public: static class CViewContact * __cdecl CViewContact::NewL(long,int)
	?NewLC@CContactItem@@SAPAV1@VTUid@@@Z @ 469 NONAME ; public: static class CContactItem * __cdecl CContactItem::NewLC(class TUid)
	?PackL@CCntPackager@@QAE?AVTPtr8@@ABV?$CArrayFix@VTSortPref@CContactDatabase@@@@@Z @ 470 NONAME ; public: class TPtr8  __thiscall CCntPackager::PackL(class CArrayFix<class CContactDatabase::TSortPref> const &)
	?PackL@CCntPackager@@QAE?AVTPtr8@@ABV?$CArrayFixFlat@VTUid@@@@@Z @ 471 NONAME ; public: class TPtr8  __thiscall CCntPackager::PackL(class CArrayFixFlat<class TUid> const &)
	?PackL@CCntPackager@@QAE?AVTPtr8@@ABVCCntFilter@@@Z @ 472 NONAME ; public: class TPtr8  __thiscall CCntPackager::PackL(class CCntFilter const &)
	?PackL@CCntPackager@@QAE?AVTPtr8@@ABVCContactIdArray@@@Z @ 473 NONAME ; public: class TPtr8  __thiscall CCntPackager::PackL(class CContactIdArray const &)
	?PackL@CCntPackager@@QAE?AVTPtr8@@ABVCContactItem@@@Z @ 474 NONAME ; public: class TPtr8  __thiscall CCntPackager::PackL(class CContactItem const &)
	?PackL@CCntPackager@@QAE?AVTPtr8@@ABVCContactItem@@AAH@Z @ 475 NONAME ; public: class TPtr8  __thiscall CCntPackager::PackL(class CContactItem const &,int &)
	?PackL@CCntPackager@@QAE?AVTPtr8@@ABVCContactItemViewDef@@@Z @ 476 NONAME ; public: class TPtr8  __thiscall CCntPackager::PackL(class CContactItemViewDef const &)
	?PackL@CCntPackager@@QAE?AVTPtr8@@ABVCContactTextDef@@@Z @ 477 NONAME ; public: class TPtr8  __thiscall CCntPackager::PackL(class CContactTextDef const &)
	?PackL@CCntPackager@@QAE?AVTPtr8@@ABVCContactViewDef@@@Z @ 478 NONAME ; public: class TPtr8  __thiscall CCntPackager::PackL(class CContactViewDef const &)
	?PackL@CCntPackager@@QAE?AVTPtr8@@ABVCContentType@@@Z @ 479 NONAME ; public: class TPtr8  __thiscall CCntPackager::PackL(class CContentType const &)
	?PackL@CCntPackager@@QAE?AVTPtr8@@ABVCDesC16Array@@@Z @ 480 NONAME ; public: class TPtr8  __thiscall CCntPackager::PackL(class CDesC16Array const &)
	?PackL@CCntPackager@@QAE?AVTPtr8@@ABVCViewContact@@@Z @ 481 NONAME ; public: class TPtr8  __thiscall CCntPackager::PackL(class CViewContact const &)
	?RemoveContactL@CContactGroup@@QAEXJ@Z @ 482 NONAME ; public: void __thiscall CContactGroup::RemoveContactL(long)
	?Reset@CContactItemField@@QAEXXZ @ 483 NONAME ; public: void __thiscall CContactItemField::Reset(void)
	?Reset@CViewContact@@QAEXXZ @ 484 NONAME ; public: void __thiscall CViewContact::Reset(void)
	?RestoreFieldTypesL@CContactItemField@@QAE?AVTStreamId@@AAVRReadStream@@PBVCContactItemFieldSet@@@Z @ 485 NONAME ; public: class TStreamId  __thiscall CContactItemField::RestoreFieldTypesL(class RReadStream &,class CContactItemFieldSet const *)
	?RestoreIfMatchL@CContactItemField@@QAEHAAVRReadStream@@PBVCContactItemFieldDef@@PBVCContactItemFieldSet@@PAVHBufC16@@H@Z @ 486 NONAME ; public: int __thiscall CContactItemField::RestoreIfMatchL(class RReadStream &,class CContactItemFieldDef const *,class CContactItemFieldSet const *,class HBufC16 *,int)
	?RestoreL@CContactItemFieldSet@@QAEXAAVCStreamStore@@VTStreamId@@PAV2@ABVCContactItemViewDef@@PBVCContactItem@@PAVHBufC16@@@Z @ 487 NONAME ; public: void __thiscall CContactItemFieldSet::RestoreL(class CStreamStore &,class TStreamId,class CStreamStore *,class CContactItemViewDef const &,class CContactItem const *,class HBufC16 *)
	?RestoreTemplateFieldsL@CContactItem@@QAEXABVCContactItemFieldSet@@0ABVCContactItemViewDef@@@Z @ 488 NONAME ; public: void __thiscall CContactItem::RestoreTemplateFieldsL(class CContactItemFieldSet const &,class CContactItemFieldSet const &,class CContactItemViewDef const &)
	?RestoreTextL@CContactItemField@@QAEXPAVHBufC16@@H@Z @ 489 NONAME ; public: void __thiscall CContactItemField::RestoreTextL(class HBufC16 *,int)
	?SetBufferFromMessageL@CCntPackager@@QAEXABVRMessage2@@I@Z @ 490 NONAME ; public: void __thiscall CCntPackager::SetBufferFromMessageL(class RMessage2 const &,unsigned int)
	?SetContactHint@CViewContact@@QAEXH@Z @ 491 NONAME ; public: void __thiscall CViewContact::SetContactHint(int)
	?SetContactTypeUid@CViewContact@@QAEXVTUid@@@Z @ 492 NONAME ; public: void __thiscall CViewContact::SetContactTypeUid(class TUid)
	?SetCustomFilterable@CContactItemField@@QAEXW4EContactFieldFlags@@@Z @ 493 NONAME ; public: void __thiscall CContactItemField::SetCustomFilterable(enum EContactFieldFlags)
	?SetFirstFieldForBlankContactL@CViewContact@@QAEXABVTDesC16@@@Z @ 494 NONAME ; public: void __thiscall CViewContact::SetFirstFieldForBlankContactL(class TDesC16 const &)
	?SetHasCompressedGuid@CContactItem@@AAEXH@Z @ 495 NONAME ; private: void __thiscall CContactItem::SetHasCompressedGuid(int)
	?SetOperationTimeOutL@CContactDatabase@@QBEXH@Z @ 496 NONAME ; public: void __thiscall CContactDatabase::SetOperationTimeOutL(int)const 
	?StoreL@CContactItemFieldSet@@AAE?AVTStreamId@@AAVCStreamStore@@PBVCContactItem@@AAVRWriteStream@@0PAVCContactTables@@@Z @ 497 NONAME ; private: class TStreamId  __thiscall CContactItemFieldSet::StoreL(class CStreamStore &,class CContactItem const *,class RWriteStream &,class CStreamStore &,class CContactTables *)
	?UnpackCArrayFixLC@CCntPackager@@QBEPAV?$CArrayFix@VTSortPref@CContactDatabase@@@@XZ @ 498 NONAME ; public: class CArrayFix<class CContactDatabase::TSortPref> * __thiscall CCntPackager::UnpackCArrayFixLC(void)const 
	?UnpackCntContentTypeLC@CCntPackager@@QBEPAVCContentType@@XZ @ 499 NONAME ; public: class CContentType * __thiscall CCntPackager::UnpackCntContentTypeLC(void)const 
	?UnpackCntFilterLC@CCntPackager@@QBEPAVCCntFilter@@XZ @ 500 NONAME ; public: class CCntFilter * __thiscall CCntPackager::UnpackCntFilterLC(void)const 
	?UnpackCntIdArrayLC@CCntPackager@@QBEPAVCContactIdArray@@XZ @ 501 NONAME ; public: class CContactIdArray * __thiscall CCntPackager::UnpackCntIdArrayLC(void)const 
	?UnpackCntItemLC@CCntPackager@@QBEPAVCContactItem@@XZ @ 502 NONAME ; public: class CContactItem * __thiscall CCntPackager::UnpackCntItemLC(void)const 
	?UnpackCntItemViewDefLC@CCntPackager@@QBEPAVCContactItemViewDef@@XZ @ 503 NONAME ; public: class CContactItemViewDef * __thiscall CCntPackager::UnpackCntItemViewDefLC(void)const 
	?UnpackCntTextDefLC@CCntPackager@@QBEPAVCContactTextDef@@XZ @ 504 NONAME ; public: class CContactTextDef * __thiscall CCntPackager::UnpackCntTextDefLC(void)const 
	?UnpackCntViewDefLC@CCntPackager@@QBEPAVCContactViewDef@@XZ @ 505 NONAME ; public: class CContactViewDef * __thiscall CCntPackager::UnpackCntViewDefLC(void)const 
	?UnpackDesCArrayLC@CCntPackager@@QBEPAVCDesC16Array@@XZ @ 506 NONAME ; public: class CDesC16Array * __thiscall CCntPackager::UnpackDesCArrayLC(void)const 
	?UnpackTUidArrayLC@CCntPackager@@QBEPAV?$CArrayFixFlat@VTUid@@@@XZ @ 507 NONAME ; public: class CArrayFixFlat<class TUid> * __thiscall CCntPackager::UnpackTUidArrayLC(void)const 
	?UnpackViewContactLC@CCntPackager@@QBEPAVCViewContact@@XZ @ 508 NONAME ; public: class CViewContact * __thiscall CCntPackager::UnpackViewContactLC(void)const 
	??1CContactDefaultViewDefinition@@UAE@XZ @ 509 NONAME ; CContactDefaultViewDefinition::~CContactDefaultViewDefinition(void)
	?ExternalizeL@CContactDefaultViewDefinition@@QBEXAAVRWriteStream@@@Z @ 510 NONAME ; void CContactDefaultViewDefinition::ExternalizeL(class RWriteStream &) const
	?GetDefaultViewsL@TContactViewStore@@SAXAAV?$RPointerArray@VCContactDefaultViewDefinition@@@@@Z @ 511 NONAME ; void TContactViewStore::GetDefaultViewsL(class RPointerArray<class CContactDefaultViewDefinition> &)
	?GetDefinitionsOfExistingViewsL@TContactViewStorePrivate@@SAXABVTDesC16@@AAV?$RPointerArray@VCContactDefaultViewDefinition@@@@@Z @ 512 NONAME ; void TContactViewStorePrivate::GetDefinitionsOfExistingViewsL(class TDesC16 const &, class RPointerArray<class CContactDefaultViewDefinition> &)
	?InternalizeL@CContactDefaultViewDefinition@@QAEXAAVRReadStream@@@Z @ 513 NONAME ; void CContactDefaultViewDefinition::InternalizeL(class RReadStream &)
	?NewLC@CContactDefaultViewDefinition@@SAPAV1@AAVRReadStream@@@Z @ 514 NONAME ; class CContactDefaultViewDefinition * CContactDefaultViewDefinition::NewLC(class RReadStream &)
	?NewLC@CContactDefaultViewDefinition@@SAPAV1@W4TViewType@1@ABVTDesC16@@ABVRContactViewSortOrder@@W4TContactViewPreferences@@ABVTDesC8@@@Z @ 515 NONAME ; class CContactDefaultViewDefinition * CContactDefaultViewDefinition::NewLC(enum CContactDefaultViewDefinition::TViewType, class TDesC16 const &, class RContactViewSortOrder const &, enum TContactViewPreferences, class TDesC8 const &)
	?SetDefaultViewsL@TContactViewStore@@SAXABV?$RPointerArray@VCContactDefaultViewDefinition@@@@@Z @ 516 NONAME ; void TContactViewStore::SetDefaultViewsL(class RPointerArray<class CContactDefaultViewDefinition> const &)
	?SortOrder@CContactDefaultViewDefinition@@QBEABVRContactViewSortOrder@@XZ @ 517 NONAME ; class RContactViewSortOrder const & CContactDefaultViewDefinition::SortOrder(void) const
	?SortPluginNameL@CContactDefaultViewDefinition@@QBEABVTDesC8@@XZ @ 518 NONAME ; class TDesC8 const & CContactDefaultViewDefinition::SortPluginNameL(void) const
	?ViewNameL@CContactDefaultViewDefinition@@QBEABVTDesC16@@XZ @ 519 NONAME ; class TDesC16 const & CContactDefaultViewDefinition::ViewNameL(void) const
	?ViewPreferences@CContactDefaultViewDefinition@@QBE?AW4TContactViewPreferences@@XZ @ 520 NONAME ; enum TContactViewPreferences CContactDefaultViewDefinition::ViewPreferences(void) const
	?ViewType@CContactDefaultViewDefinition@@QBE?AW4TViewType@1@XZ @ 521 NONAME ; enum CContactDefaultViewDefinition::TViewType CContactDefaultViewDefinition::ViewType(void) const
	?IsEqual@CContentType@@QBEHABV1@@Z @ 522 NONAME ; int CContentType::IsEqual(class CContentType const &) const
	?ExportSelectedContactsL@CContactDatabase@@QAEXABVTUid@@ABVCContactIdArray@@AAVRWriteStream@@H_JPAVMConverterCallBack@@W4TVCardVersion@@HW4TVersitCharSet@Versit@@H@Z @ 523 NONAME ; void CContactDatabase::ExportSelectedContactsL(class TUid const &, class CContactIdArray const &, class RWriteStream &, int, long long, class MConverterCallBack *, enum TVCardVersion, int, enum Versit::TVersitCharSet, int)
	?Attributes@CContactItem@@QBEKXZ @ 524 NONAME ABSENT ; unsigned long CContactItem::Attributes(void) const
	?ChangeToLightweightObject@CViewContact@@QAEXXZ @ 525 NONAME ABSENT ; void CViewContact::ChangeToLightweightObject(void)
	?SetAccessCount@CContactItem@@QAEXK@Z @ 526 NONAME ABSENT ; void CContactItem::SetAccessCount(unsigned long)
	?SetAttributes@CContactItem@@QAEXK@Z @ 527 NONAME ABSENT ; void CContactItem::SetAttributes(unsigned long)
	?SetCreationDate@CContactItem@@QAEXABVTTime@@@Z @ 528 NONAME ABSENT ; void CContactItem::SetCreationDate(class TTime const &)
	?SetId@CContactItem@@QAEXJ@Z @ 529 NONAME ABSENT ; void CContactItem::SetId(long)
	?KNumberOfContactsToReadPerMerge@@3HB @ 530 NONAME ABSENT ; int const KNumberOfContactsToReadPerMerge
	?ResetGroups@CContactItemPlusGroup@@QAEXXZ @ 531 NONAME ABSENT ; void CContactItemPlusGroup::ResetGroups(void)
	?ResetItems@CContactGroup@@QAEXXZ @ 532 NONAME ABSENT ; void CContactGroup::ResetItems(void)
	?SetGroups@CContactItemPlusGroup@@QAEXPAVCContactIdArray@@@Z @ 533 NONAME ABSENT ; void CContactItemPlusGroup::SetGroups(class CContactIdArray *)
	?SetItems@CContactGroup@@QAEXPAVCContactIdArray@@@Z @ 534 NONAME ABSENT ; void CContactGroup::SetItems(class CContactIdArray *)

