EXPORTS
	?IndicesValid@CContactViewRangeBase@@QBEHXZ @ 1 NONAME ; public: int __thiscall CContactViewRangeBase::IndicesValid(void)const 
	?NewL@CContactConcatenatedView@@SAPAV1@AAVMContactViewObserver@@ABVCContactDatabase@@AAV?$RPointerArray@VCContactViewBase@@@@@Z @ 2 NONAME ; public: static class CContactConcatenatedView * __cdecl CContactConcatenatedView::NewL(class MContactViewObserver &,class CContactDatabase const &,class RPointerArray<class CContactViewBase> &)
	?NewL@CContactFilteredView@@SAPAV1@AAVMContactViewObserver@@ABVCContactDatabase@@AAVCContactViewBase@@H@Z @ 3 NONAME ; public: static class CContactFilteredView * __cdecl CContactFilteredView::NewL(class MContactViewObserver &,class CContactDatabase const &,class CContactViewBase &,int)
	?NewL@CContactFindView@@SAPAV1@ABVCContactDatabase@@AAVCContactViewBase@@AAVMContactViewObserver@@PAVMDesC16Array@@@Z @ 4 NONAME ; public: static class CContactFindView * __cdecl CContactFindView::NewL(class CContactDatabase const &,class CContactViewBase &,class MContactViewObserver &,class MDesC16Array *)
	?NewL@CContactGroupView@@SAPAV1@ABVCContactDatabase@@AAVCContactViewBase@@AAVMContactViewObserver@@ABVTDesC16@@W4TGroupType@1@@Z @ 5 NONAME ; public: static class CContactGroupView * __cdecl CContactGroupView::NewL(class CContactDatabase const &,class CContactViewBase &,class MContactViewObserver &,class TDesC16 const &,enum CContactGroupView::TGroupType)
	?NewL@CContactGroupView@@SAPAV1@ABVCContactDatabase@@AAVCContactViewBase@@AAVMContactViewObserver@@JW4TGroupType@1@@Z @ 6 NONAME ; public: static class CContactGroupView * __cdecl CContactGroupView::NewL(class CContactDatabase const &,class CContactViewBase &,class MContactViewObserver &,long,enum CContactGroupView::TGroupType)
	?NewL@CContactSubView@@SAPAV1@AAVMContactViewObserver@@ABVCContactDatabase@@AAVCContactViewBase@@ABVTDesC16@@3@Z @ 7 NONAME ; public: static class CContactSubView * __cdecl CContactSubView::NewL(class MContactViewObserver &,class CContactDatabase const &,class CContactViewBase &,class TDesC16 const &,class TDesC16 const &)
	?NewL@CContactSubView@@SAPAV1@AAVMContactViewObserver@@ABVCContactDatabase@@AAVCContactViewBase@@ABVTDesC16@@@Z @ 8 NONAME ; public: static class CContactSubView * __cdecl CContactSubView::NewL(class MContactViewObserver &,class CContactDatabase const &,class CContactViewBase &,class TDesC16 const &)
	?NewL@CContactViewHighRange@@SAPAV1@ABVCContactViewBase@@ABVTDesC16@@W4TCriteria@CContactViewRangeBase@@@Z @ 9 NONAME ; public: static class CContactViewHighRange * __cdecl CContactViewHighRange::NewL(class CContactViewBase const &,class TDesC16 const &,enum CContactViewRangeBase::TCriteria)
	?NewL@CContactViewLowRange@@SAPAV1@ABVCContactViewBase@@ABVTDesC16@@W4TCriteria@CContactViewRangeBase@@@Z @ 10 NONAME ; public: static class CContactViewLowRange * __cdecl CContactViewLowRange::NewL(class CContactViewBase const &,class TDesC16 const &,enum CContactViewRangeBase::TCriteria)
	?NewL@CContactViewRange@@SAPAV1@ABVCContactViewBase@@ABVTDesC16@@W4TCriteria@CContactViewRangeBase@@12@Z @ 11 NONAME ; public: static class CContactViewRange * __cdecl CContactViewRange::NewL(class CContactViewBase const &,class TDesC16 const &,enum CContactViewRangeBase::TCriteria,class TDesC16 const &,enum CContactViewRangeBase::TCriteria)
	?RefineFindViewL@CContactFindView@@QAEXPAVMDesC16Array@@@Z @ 12 NONAME ; public: void __thiscall CContactFindView::RefineFindViewL(class MDesC16Array *)
	?UpdateFindViewL@CContactFindView@@MAEXXZ @ 13 NONAME ; protected: virtual void __thiscall CContactFindView::UpdateFindViewL(void)
	?UpdateGroupViewL@CContactGroupView@@MAEXXZ @ 14 NONAME ; protected: virtual void __thiscall CContactGroupView::UpdateGroupViewL(void)
	?NewL@CContactFindView@@SAPAV1@ABVCContactDatabase@@AAVCContactViewBase@@AAVMContactViewObserver@@PAVMDesC16Array@@W4TSearchType@3@@Z @ 15 NONAME ; public: static class CContactFindView * __cdecl CContactFindView::NewL(class CContactDatabase const &,class CContactViewBase &,class MContactViewObserver &,class MDesC16Array *,enum CContactViewBase::TSearchType)
	?NewL@CContactGroupView@@SAPAV1@AAVCContactViewBase@@ABVCContactDatabase@@AAVMContactViewObserver@@ABVTDesC16@@W4TGroupType@1@@Z @ 16 NONAME ; class CContactGroupView * CContactGroupView::NewL(class CContactViewBase &, class CContactDatabase const &, class MContactViewObserver &, class TDesC16 const &, enum CContactGroupView::TGroupType)
	?NewL@CContactGroupView@@SAPAV1@AAVCContactViewBase@@ABVCContactDatabase@@AAVMContactViewObserver@@JW4TGroupType@1@@Z @ 17 NONAME ; class CContactGroupView * CContactGroupView::NewL(class CContactViewBase &, class CContactDatabase const &, class MContactViewObserver &, long, enum CContactGroupView::TGroupType)
	?NewL@CContactFindView@@SAPAV1@AAVCContactViewBase@@ABVCContactDatabase@@AAVMContactViewObserver@@PAVMDesC16Array@@@Z @ 18 NONAME ; class CContactFindView * CContactFindView::NewL(class CContactViewBase &, class CContactDatabase const &, class MContactViewObserver &, class MDesC16Array *)
	?NewL@CContactFindView@@SAPAV1@AAVCContactViewBase@@ABVCContactDatabase@@AAVMContactViewObserver@@PAVMDesC16Array@@W4TSearchType@2@@Z @ 19 NONAME ; class CContactFindView * CContactFindView::NewL(class CContactViewBase &, class CContactDatabase const &, class MContactViewObserver &, class MDesC16Array *, enum CContactViewBase::TSearchType)
	?NewL@CContactSubView@@SAPAV1@AAVCContactViewBase@@ABVCContactDatabase@@AAVMContactViewObserver@@ABVTDesC16@@3@Z @ 20 NONAME ; class CContactSubView * CContactSubView::NewL(class CContactViewBase &, class CContactDatabase const &, class MContactViewObserver &, class TDesC16 const &, class TDesC16 const &)
	?NewL@CContactSubView@@SAPAV1@AAVCContactViewBase@@ABVCContactDatabase@@AAVMContactViewObserver@@ABVTDesC16@@@Z @ 21 NONAME ; class CContactSubView * CContactSubView::NewL(class CContactViewBase &, class CContactDatabase const &, class MContactViewObserver &, class TDesC16 const &)
	?NewL@CContactFilteredView@@SAPAV1@AAVCContactViewBase@@ABVCContactDatabase@@AAVMContactViewObserver@@H@Z @ 22 NONAME ; class CContactFilteredView * CContactFilteredView::NewL(class CContactViewBase &, class CContactDatabase const &, class MContactViewObserver &, int)
 
