EXPORTS
	?PrintContactL@@YAXABVTDesC16@@ABVCContactItem@@@Z @ 1 NONAME ; void __cdecl PrintContactL(class TDesC16 const &,class CContactItem const &)
	??4TGetSet@TCnt@@QAEXABVTDesC16@@@Z @ 2 NONAME ; public: void __thiscall TCnt::TGetSet::operator=(class TDesC16 const &)
	??ATCnt@@QAEAAVTGetSet@0@VTUid@@@Z @ 3 NONAME ; public: class TCnt::TGetSet & __thiscall TCnt::operator[](class TUid)
	??ATGetSet@TCnt@@QAEAAV01@H@Z @ 4 NONAME ; public: class TCnt::TGetSet & __thiscall TCnt::TGetSet::operator[](int)
	??BTGetSet@TCnt@@QAE?BVTPtrC16@@XZ @ 5 NONAME ; public: __thiscall TCnt::TGetSet::operator class TPtrC16 const (void)
	??YTGetSet@TCnt@@QAEXABVTDesC16@@@Z @ 6 NONAME ; public: void __thiscall TCnt::TGetSet::operator+=(class TDesC16 const &)
	??8TGetSet@TCnt@@QAEHABVTDesC16@@@Z @ 7 NONAME ; public: int __thiscall TCnt::TGetSet::operator==(class TDesC16 const &)
	??ITGetSet@TCnt@@QAEAAV01@VTUid@@@Z @ 8 NONAME ; public: class TCnt::TGetSet & __thiscall TCnt::TGetSet::operator&(class TUid)
	?Count@TGetSet@TCnt@@QAEHXZ @ 9 NONAME ; public: int __thiscall TCnt::TGetSet::Count(void)
	?Field@TGetSet@TCnt@@QAEAAVCContactItemField@@XZ @ 10 NONAME ; public: class CContactItemField & __thiscall TCnt::TGetSet::Field(void)
	??1CCntItemBuilder@@UAE@XZ @11 ; public: void __thiscall CCntItemBuilder::~CCntItemBuilder(void)
	?GetCntItemLC@CCntItemBuilder@@QAEPAVCContactItem@@XZ @12 ; public: void CContactItem* __thiscall CCntItemBuilder::GetCntItemLC(void)
	?NewLC@CCntItemBuilder@@SAPAV1@ABVCContactTemplate@@@Z @13 ; public: CCntItemBuilder* __thiscall CCntItemBuilder::NewLC()(const CContactTemplate&)
	??1CCntItemModifier@@UAE@XZ @14
	?NewLC@CCntItemModifier@@SAPAV1@XZ @15
	?SetTextFieldL@CCntItemModifier@@QAEXVTUid@@ABVTDesC16@@AAVCContactItem@@@Z @16
	?SetTextFieldL@CCntItemModifier@@QBEXVTUid@@000ABVTDesC16@@AAVCContactItem@@@Z @17
	?SetTextFieldL@CCntItemModifier@@QBEXVTUid@@00ABVTDesC16@@AAVCContactItem@@@Z @18
 	?SetTextFieldL@CCntItemModifier@@QBEXVTUid@@0ABVTDesC16@@AAVCContactItem@@@Z @19
 	?FindTextFieldL@CCntItemModifier@@QBEHVTUid@@0ABVTDesC16@@AAVCContactItem@@@Z @20
 	?FindTextFieldL@CCntItemModifier@@QBEHVTUid@@000ABVTDesC16@@AAVCContactItem@@@Z @21
  	?FindTextFieldL@CCntItemModifier@@QBEHVTUid@@ABVTDesC16@@AAVCContactItem@@@Z @22